(dp1
S'C10'
p2
(lp3
(lp4
(lp5
F0.69999999999999996
aF0.80000000000000004
aF0.80000000000000004
aF0
aF0.10000000000000001
aF0.20000000000000001
aa(lp6
F0.20000000000000001
aF0.40000000000000002
aF0.40000000000000002
aF0.40000000000000002
aF0.5
aF0.5
aa(lp7
F0.29999999999999999
aF0.40000000000000002
aF0.40000000000000002
aF0.29999999999999999
aF0.5
aF0.59999999999999998
aaa(lp8
(lp9
F0.80000000000000004
aF0.80000000000000004
aF0.80000000000000004
aF0
aF0.10000000000000001
aF0.20000000000000001
aa(lp10
F0.29999999999999999
aF0.29999999999999999
aF0.40000000000000002
aF0.29999999999999999
aF0.40000000000000002
aF0.59999999999999998
aa(lp11
F0.29999999999999999
aF0.40000000000000002
aF0.40000000000000002
aF0.40000000000000002
aF0.5
aF0.59999999999999998
aaa(lp12
(lp13
F0.80000000000000004
aF0.80000000000000004
aF0.90000000000000002
aF0
aF0.10000000000000001
aF0.20000000000000001
aa(lp14
F0.40000000000000002
aF0.40000000000000002
aF0.40000000000000002
aF0.29999999999999999
aF0.5
aF0.59999999999999998
aa(lp15
F0.40000000000000002
aF0.40000000000000002
aF0.5
aF0.40000000000000002
aF0.5
aF0.59999999999999998
aaa(lp16
(lp17
F0.59999999999999998
aF0.69999999999999996
aF0.80000000000000004
aF0.20000000000000001
aF0.29999999999999999
aF0.29999999999999999
aa(lp18
F0.29999999999999999
aF0.40000000000000002
aF0.5
aF0.40000000000000002
aF0.5
aF0.59999999999999998
aa(lp19
F0.10000000000000001
aF0.10000000000000001
aF0.20000000000000001
aF0.40000000000000002
aF0.59999999999999998
aF0.69999999999999996
aaa(lp20
(lp21
F0.69999999999999996
aF0.69999999999999996
aF0.90000000000000002
aF0.10000000000000001
aF0.10000000000000001
aF0.10000000000000001
aa(lp22
F0.20000000000000001
aF0.40000000000000002
aF0.59999999999999998
aF0.40000000000000002
aF0.5
aF0.5
aa(lp23
F0.10000000000000001
aF0.10000000000000001
aF0.10000000000000001
aF0.5
aF0.59999999999999998
aF0.59999999999999998
aaa(lp24
(lp25
F0.80000000000000004
aF0.80000000000000004
aF0.90000000000000002
aF0
aF0.10000000000000001
aF0.20000000000000001
aa(lp26
F0.20000000000000001
aF0.29999999999999999
aF0.59999999999999998
aF0.40000000000000002
aF0.5
aF0.5
aa(lp27
F0.29999999999999999
aF0.29999999999999999
aF0.40000000000000002
aF0.40000000000000002
aF0.40000000000000002
aF0.59999999999999998
aaa(lp28
(lp29
F0.29999999999999999
aF0.40000000000000002
aF0.40000000000000002
aF0.40000000000000002
aF0.5
aF0.5
aa(lp30
F0.29999999999999999
aF0.29999999999999999
aF0.40000000000000002
aF0.5
aF0.5
aF0.59999999999999998
aa(lp31
F0.80000000000000004
aF0.80000000000000004
aF0.80000000000000004
aF0.10000000000000001
aF0.20000000000000001
aF0.20000000000000001
aaa(lp32
(lp33
F0
aF0.20000000000000001
aF0.29999999999999999
aF0.5
aF0.5
aF0.69999999999999996
aa(lp34
F0.59999999999999998
aF0.59999999999999998
aF0.69999999999999996
aF0.29999999999999999
aF0.29999999999999999
aF0.29999999999999999
aa(lp35
F0.40000000000000002
aF0.40000000000000002
aF0.59999999999999998
aF0.29999999999999999
aF0.5
aF0.59999999999999998
aaa(lp36
(lp37
F0.59999999999999998
aF0.69999999999999996
aF0.80000000000000004
aF0.10000000000000001
aF0.10000000000000001
aF0.10000000000000001
aa(lp38
F0.29999999999999999
aF0.40000000000000002
aF0.40000000000000002
aF0.5
aF0.5
aF0.5
aa(lp39
F0
aF0.29999999999999999
aF0.29999999999999999
aF0.5
aF0.59999999999999998
aF0.59999999999999998
aaa(lp40
(lp41
F0.59999999999999998
aF0.69999999999999996
aF0.80000000000000004
aF0
aF0.10000000000000001
aF0.10000000000000001
aa(lp42
F0.40000000000000002
aF0.40000000000000002
aF0.59999999999999998
aF0.29999999999999999
aF0.5
aF0.59999999999999998
aa(lp43
F0.20000000000000001
aF0.29999999999999999
aF0.59999999999999998
aF0.29999999999999999
aF0.5
aF0.59999999999999998
aaa(lp44
(lp45
F0.29999999999999999
aF0.40000000000000002
aF0.40000000000000002
aF0.40000000000000002
aF0.5
aF0.59999999999999998
aa(lp46
F0.29999999999999999
aF0.29999999999999999
aF0.40000000000000002
aF0.29999999999999999
aF0.5
aF0.5
aa(lp47
F0.69999999999999996
aF0.80000000000000004
aF0.90000000000000002
aF0.10000000000000001
aF0.20000000000000001
aF0.20000000000000001
aaa(lp48
(lp49
F0.5
aF0.59999999999999998
aF0.80000000000000004
aF0.20000000000000001
aF0.29999999999999999
aF0.40000000000000002
aa(lp50
F0.40000000000000002
aF0.40000000000000002
aF0.5
aF0.40000000000000002
aF0.5
aF0.5
aa(lp51
F0.10000000000000001
aF0.20000000000000001
aF0.20000000000000001
aF0.40000000000000002
aF0.59999999999999998
aF0.69999999999999996
aaa(lp52
(lp53
F0.5
aF0.69999999999999996
aF0.80000000000000004
aF0.20000000000000001
aF0.29999999999999999
aF0.29999999999999999
aa(lp54
F0.29999999999999999
aF0.40000000000000002
aF0.40000000000000002
aF0.5
aF0.5
aF0.59999999999999998
aa(lp55
F0
aF0.20000000000000001
aF0.20000000000000001
aF0.40000000000000002
aF0.5
aF0.59999999999999998
aaa(lp56
(lp57
F0.10000000000000001
aF0.20000000000000001
aF0.20000000000000001
aF0.40000000000000002
aF0.59999999999999998
aF0.59999999999999998
aa(lp58
F0.59999999999999998
aF0.59999999999999998
aF0.69999999999999996
aF0.20000000000000001
aF0.20000000000000001
aF0.29999999999999999
aa(lp59
F0.29999999999999999
aF0.40000000000000002
aF0.40000000000000002
aF0.40000000000000002
aF0.40000000000000002
aF0.59999999999999998
aaa(lp60
(lp61
F0.59999999999999998
aF0.59999999999999998
aF0.80000000000000004
aF0.29999999999999999
aF0.29999999999999999
aF0.40000000000000002
aa(lp62
F0.40000000000000002
aF0.5
aF0.59999999999999998
aF0.40000000000000002
aF0.5
aF0.59999999999999998
aa(lp63
F0.10000000000000001
aF0.10000000000000001
aF0.20000000000000001
aF0.40000000000000002
aF0.59999999999999998
aF0.69999999999999996
aaa(lp64
(lp65
F0.20000000000000001
aF0.29999999999999999
aF0.59999999999999998
aF0.40000000000000002
aF0.40000000000000002
aF0.5
aa(lp66
F0.69999999999999996
aF0.69999999999999996
aF0.80000000000000004
aF0
aF0.10000000000000001
aF0.20000000000000001
aa(lp67
F0
aF0.20000000000000001
aF0.29999999999999999
aF0.5
aF0.5
aF0.69999999999999996
aaaI1
asS'C11'
p68
(lp69
(lp70
(lp71
F0.59999999999999998
aF0.69999999999999996
aF0.90000000000000002
aF0.10000000000000001
aF0.10000000000000001
aF0.10000000000000001
aa(lp72
F0.29999999999999999
aF0.29999999999999999
aF0.29999999999999999
aF0.29999999999999999
aF0.5
aF0.59999999999999998
aa(lp73
F0
aF0.20000000000000001
aF0.29999999999999999
aF0.40000000000000002
aF0.5
aF0.69999999999999996
aaa(lp74
(lp75
F0.20000000000000001
aF0.20000000000000001
aF0.29999999999999999
aF0.5
aF0.59999999999999998
aF0.69999999999999996
aa(lp76
F0.69999999999999996
aF0.80000000000000004
aF0.80000000000000004
aF0
aF0.20000000000000001
aF0.20000000000000001
aa(lp77
F0.20000000000000001
aF0.29999999999999999
aF0.5
aF0.29999999999999999
aF0.5
aF0.59999999999999998
aaa(lp78
(lp79
F0
aF0.20000000000000001
aF0.20000000000000001
aF0.5
aF0.59999999999999998
aF0.69999999999999996
aa(lp80
F0.20000000000000001
aF0.29999999999999999
aF0.40000000000000002
aF0.5
aF0.5
aF0.59999999999999998
aa(lp81
F0.80000000000000004
aF0.80000000000000004
aF0.80000000000000004
aF0
aF0.10000000000000001
aF0.10000000000000001
aaa(lp82
(lp83
F0.10000000000000001
aF0.20000000000000001
aF0.29999999999999999
aF0.5
aF0.59999999999999998
aF0.69999999999999996
aa(lp84
F0.69999999999999996
aF0.69999999999999996
aF0.80000000000000004
aF0.10000000000000001
aF0.10000000000000001
aF0.20000000000000001
aa(lp85
F0.29999999999999999
aF0.29999999999999999
aF0.40000000000000002
aF0.40000000000000002
aF0.5
aF0.59999999999999998
aaa(lp86
(lp87
F0.10000000000000001
aF0.20000000000000001
aF0.20000000000000001
aF0.5
aF0.59999999999999998
aF0.69999999999999996
aa(lp88
F0.69999999999999996
aF0.80000000000000004
aF0.90000000000000002
aF0.10000000000000001
aF0.20000000000000001
aF0.20000000000000001
aa(lp89
F0.40000000000000002
aF0.40000000000000002
aF0.40000000000000002
aF0.29999999999999999
aF0.5
aF0.59999999999999998
aaa(lp90
(lp91
F0.10000000000000001
aF0.10000000000000001
aF0.29999999999999999
aF0.5
aF0.59999999999999998
aF0.59999999999999998
aa(lp92
F0.29999999999999999
aF0.40000000000000002
aF0.40000000000000002
aF0.5
aF0.5
aF0.59999999999999998
aa(lp93
F0.69999999999999996
aF0.80000000000000004
aF0.80000000000000004
aF0
aF0.10000000000000001
aF0.20000000000000001
aaa(lp94
(lp95
F0.5
aF0.59999999999999998
aF0.59999999999999998
aF0.20000000000000001
aF0.20000000000000001
aF0.29999999999999999
aa(lp96
F0.29999999999999999
aF0.29999999999999999
aF0.40000000000000002
aF0.40000000000000002
aF0.5
aF0.59999999999999998
aa(lp97
F0.10000000000000001
aF0.20000000000000001
aF0.29999999999999999
aF0.40000000000000002
aF0.5
aF0.59999999999999998
aaa(lp98
(lp99
F0.10000000000000001
aF0.10000000000000001
aF0.20000000000000001
aF0.40000000000000002
aF0.59999999999999998
aF0.69999999999999996
aa(lp100
F0.20000000000000001
aF0.29999999999999999
aF0.40000000000000002
aF0.29999999999999999
aF0.40000000000000002
aF0.59999999999999998
aa(lp101
F0.59999999999999998
aF0.69999999999999996
aF0.80000000000000004
aF0.20000000000000001
aF0.20000000000000001
aF0.29999999999999999
aaa(lp102
(lp103
F0.20000000000000001
aF0.29999999999999999
aF0.40000000000000002
aF0.29999999999999999
aF0.5
aF0.59999999999999998
aa(lp104
F0.59999999999999998
aF0.59999999999999998
aF0.80000000000000004
aF0.29999999999999999
aF0.29999999999999999
aF0.40000000000000002
aa(lp105
F0
aF0.10000000000000001
aF0.20000000000000001
aF0.5
aF0.5
aF0.69999999999999996
aaa(lp106
(lp107
F0.10000000000000001
aF0.29999999999999999
aF0.29999999999999999
aF0.5
aF0.59999999999999998
aF0.59999999999999998
aa(lp108
F0.29999999999999999
aF0.29999999999999999
aF0.29999999999999999
aF0.29999999999999999
aF0.5
aF0.59999999999999998
aa(lp109
F0.59999999999999998
aF0.69999999999999996
aF0.69999999999999996
aF0.20000000000000001
aF0.29999999999999999
aF0.40000000000000002
aaa(lp110
(lp111
F0.20000000000000001
aF0.40000000000000002
aF0.59999999999999998
aF0.40000000000000002
aF0.5
aF0.5
aa(lp112
F0.59999999999999998
aF0.69999999999999996
aF0.69999999999999996
aF0.29999999999999999
aF0.29999999999999999
aF0.29999999999999999
aa(lp113
F0.10000000000000001
aF0.20000000000000001
aF0.29999999999999999
aF0.40000000000000002
aF0.59999999999999998
aF0.69999999999999996
aaa(lp114
(lp115
F0.10000000000000001
aF0.10000000000000001
aF0.29999999999999999
aF0.5
aF0.5
aF0.59999999999999998
aa(lp116
F0.59999999999999998
aF0.80000000000000004
aF0.80000000000000004
aF0
aF0.10000000000000001
aF0.20000000000000001
aa(lp117
F0.20000000000000001
aF0.5
aF0.59999999999999998
aF0.29999999999999999
aF0.5
aF0.5
aaa(lp118
(lp119
F0.20000000000000001
aF0.29999999999999999
aF0.40000000000000002
aF0.29999999999999999
aF0.5
aF0.59999999999999998
aa(lp120
F0.69999999999999996
aF0.69999999999999996
aF0.80000000000000004
aF0
aF0.10000000000000001
aF0.10000000000000001
aa(lp121
F0.20000000000000001
aF0.20000000000000001
aF0.29999999999999999
aF0.59999999999999998
aF0.59999999999999998
aF0.80000000000000004
aaa(lp122
(lp123
F0.29999999999999999
aF0.29999999999999999
aF0.59999999999999998
aF0.40000000000000002
aF0.5
aF0.59999999999999998
aa(lp124
F0.69999999999999996
aF0.80000000000000004
aF0.80000000000000004
aF0
aF0.20000000000000001
aF0.20000000000000001
aa(lp125
F0
aF0.20000000000000001
aF0.29999999999999999
aF0.5
aF0.69999999999999996
aF0.80000000000000004
aaa(lp126
(lp127
F0.10000000000000001
aF0.20000000000000001
aF0.20000000000000001
aF0.5
aF0.59999999999999998
aF0.69999999999999996
aa(lp128
F0.69999999999999996
aF0.69999999999999996
aF0.80000000000000004
aF0
aF0.10000000000000001
aF0.20000000000000001
aa(lp129
F0.20000000000000001
aF0.29999999999999999
aF0.29999999999999999
aF0.29999999999999999
aF0.5
aF0.59999999999999998
aaa(lp130
(lp131
F0.29999999999999999
aF0.40000000000000002
aF0.40000000000000002
aF0.40000000000000002
aF0.40000000000000002
aF0.59999999999999998
aa(lp132
F0.29999999999999999
aF0.5
aF0.59999999999999998
aF0.29999999999999999
aF0.40000000000000002
aF0.59999999999999998
aa(lp133
F0.59999999999999998
aF0.59999999999999998
aF0.80000000000000004
aF0.29999999999999999
aF0.29999999999999999
aF0.40000000000000002
aaaI2
asS'C13'
p134
(lp135
(lp136
(lp137
F0.10000000000000001
aF0.20000000000000001
aF0.40000000000000002
aF0.5
aF0.59999999999999998
aF0.69999999999999996
aa(lp138
F0.69999999999999996
aF0.80000000000000004
aF0.90000000000000002
aF0.10000000000000001
aF0.10000000000000001
aF0.10000000000000001
aa(lp139
F0.20000000000000001
aF0.29999999999999999
aF0.59999999999999998
aF0.40000000000000002
aF0.40000000000000002
aF0.59999999999999998
aaa(lp140
(lp141
F0.10000000000000001
aF0.20000000000000001
aF0.29999999999999999
aF0.5
aF0.59999999999999998
aF0.59999999999999998
aa(lp142
F0.59999999999999998
aF0.59999999999999998
aF0.69999999999999996
aF0.20000000000000001
aF0.20000000000000001
aF0.29999999999999999
aa(lp143
F0.29999999999999999
aF0.40000000000000002
aF0.40000000000000002
aF0.29999999999999999
aF0.40000000000000002
aF0.59999999999999998
aaa(lp144
(lp145
F0.29999999999999999
aF0.40000000000000002
aF0.40000000000000002
aF0.40000000000000002
aF0.5
aF0.59999999999999998
aa(lp146
F0.40000000000000002
aF0.40000000000000002
aF0.5
aF0.29999999999999999
aF0.40000000000000002
aF0.59999999999999998
aa(lp147
F0.59999999999999998
aF0.59999999999999998
aF0.69999999999999996
aF0.20000000000000001
aF0.29999999999999999
aF0.29999999999999999
aaa(lp148
(lp149
F0.10000000000000001
aF0.10000000000000001
aF0.10000000000000001
aF0.5
aF0.5
aF0.69999999999999996
aa(lp150
F0.59999999999999998
aF0.69999999999999996
aF0.69999999999999996
aF0.29999999999999999
aF0.29999999999999999
aF0.40000000000000002
aa(lp151
F0.20000000000000001
aF0.40000000000000002
aF0.40000000000000002
aF0.29999999999999999
aF0.5
aF0.59999999999999998
aaa(lp152
(lp153
F0.10000000000000001
aF0.10000000000000001
aF0.20000000000000001
aF0.5
aF0.5
aF0.59999999999999998
aa(lp154
F0.69999999999999996
aF0.80000000000000004
aF0.80000000000000004
aF0
aF0.10000000000000001
aF0.10000000000000001
aa(lp155
F0.29999999999999999
aF0.40000000000000002
aF0.5
aF0.5
aF0.5
aF0.5
aaa(lp156
(lp157
F0.80000000000000004
aF0.80000000000000004
aF0.90000000000000002
aF0
aF0.20000000000000001
aF0.20000000000000001
aa(lp158
F0.29999999999999999
aF0.40000000000000002
aF0.5
aF0.40000000000000002
aF0.40000000000000002
aF0.5
aa(lp159
F0.10000000000000001
aF0.20000000000000001
aF0.20000000000000001
aF0.40000000000000002
aF0.59999999999999998
aF0.59999999999999998
aaa(lp160
(lp161
F0.80000000000000004
aF0.80000000000000004
aF0.90000000000000002
aF0
aF0.10000000000000001
aF0.20000000000000001
aa(lp162
F0.20000000000000001
aF0.29999999999999999
aF0.29999999999999999
aF0.29999999999999999
aF0.5
aF0.59999999999999998
aa(lp163
F0.20000000000000001
aF0.29999999999999999
aF0.40000000000000002
aF0.29999999999999999
aF0.40000000000000002
aF0.59999999999999998
aaa(lp164
(lp165
F0.80000000000000004
aF0.80000000000000004
aF0.80000000000000004
aF0
aF0.20000000000000001
aF0.20000000000000001
aa(lp166
F0.29999999999999999
aF0.29999999999999999
aF0.59999999999999998
aF0.29999999999999999
aF0.5
aF0.5
aa(lp167
F0.29999999999999999
aF0.29999999999999999
aF0.29999999999999999
aF0.40000000000000002
aF0.5
aF0.5
aaa(lp168
(lp169
F0.20000000000000001
aF0.29999999999999999
aF0.40000000000000002
aF0.40000000000000002
aF0.40000000000000002
aF0.59999999999999998
aa(lp170
F0.40000000000000002
aF0.40000000000000002
aF0.5
aF0.40000000000000002
aF0.5
aF0.59999999999999998
aa(lp171
F0.59999999999999998
aF0.69999999999999996
aF0.80000000000000004
aF0.29999999999999999
aF0.29999999999999999
aF0.40000000000000002
aaa(lp172
(lp173
F0.10000000000000001
aF0.29999999999999999
aF0.29999999999999999
aF0.40000000000000002
aF0.59999999999999998
aF0.59999999999999998
aa(lp174
F0.59999999999999998
aF0.69999999999999996
aF0.69999999999999996
aF0.20000000000000001
aF0.29999999999999999
aF0.29999999999999999
aa(lp175
F0.29999999999999999
aF0.29999999999999999
aF0.59999999999999998
aF0.29999999999999999
aF0.5
aF0.5
aaa(lp176
(lp177
F0.80000000000000004
aF0.80000000000000004
aF0.90000000000000002
aF0
aF0.10000000000000001
aF0.20000000000000001
aa(lp178
F0.40000000000000002
aF0.40000000000000002
aF0.40000000000000002
aF0.40000000000000002
aF0.5
aF0.5
aa(lp179
F0.29999999999999999
aF0.40000000000000002
aF0.5
aF0.29999999999999999
aF0.5
aF0.59999999999999998
aaa(lp180
(lp181
F0.10000000000000001
aF0.29999999999999999
aF0.29999999999999999
aF0.5
aF0.59999999999999998
aF0.80000000000000004
aa(lp182
F0.59999999999999998
aF0.69999999999999996
aF0.69999999999999996
aF0.29999999999999999
aF0.29999999999999999
aF0.40000000000000002
aa(lp183
F0.29999999999999999
aF0.40000000000000002
aF0.40000000000000002
aF0.40000000000000002
aF0.5
aF0.59999999999999998
aaa(lp184
(lp185
F0.20000000000000001
aF0.29999999999999999
aF0.5
aF0.29999999999999999
aF0.5
aF0.59999999999999998
aa(lp186
F0.29999999999999999
aF0.29999999999999999
aF0.40000000000000002
aF0.29999999999999999
aF0.5
aF0.5
aa(lp187
F0.69999999999999996
aF0.69999999999999996
aF0.80000000000000004
aF0
aF0.10000000000000001
aF0.10000000000000001
aaa(lp188
(lp189
F0.10000000000000001
aF0.20000000000000001
aF0.29999999999999999
aF0.5
aF0.5
aF0.59999999999999998
aa(lp190
F0.59999999999999998
aF0.80000000000000004
aF0.80000000000000004
aF0
aF0.10000000000000001
aF0.20000000000000001
aa(lp191
F0.40000000000000002
aF0.40000000000000002
aF0.59999999999999998
aF0.29999999999999999
aF0.5
aF0.5
aaa(lp192
(lp193
F0.5
aF0.69999999999999996
aF0.69999999999999996
aF0.20000000000000001
aF0.20000000000000001
aF0.40000000000000002
aa(lp194
F0.20000000000000001
aF0.29999999999999999
aF0.40000000000000002
aF0.40000000000000002
aF0.5
aF0.59999999999999998
aa(lp195
F0
aF0.10000000000000001
aF0.20000000000000001
aF0.40000000000000002
aF0.59999999999999998
aF0.69999999999999996
aaa(lp196
(lp197
F0
aF0.10000000000000001
aF0.29999999999999999
aF0.5
aF0.59999999999999998
aF0.69999999999999996
aa(lp198
F0.40000000000000002
aF0.5
aF0.59999999999999998
aF0.29999999999999999
aF0.40000000000000002
aF0.59999999999999998
aa(lp199
F0.69999999999999996
aF0.80000000000000004
aF0.90000000000000002
aF0
aF0.20000000000000001
aF0.20000000000000001
aaaI2
asS'C9'
p200
(lp201
(lp202
(lp203
F0
aF0.20000000000000001
aF0.29999999999999999
aF0.59999999999999998
aF0.59999999999999998
aF0.69999999999999996
aa(lp204
F0.29999999999999999
aF0.29999999999999999
aF0.29999999999999999
aF0.40000000000000002
aF0.5
aF0.59999999999999998
aa(lp205
F0.5
aF0.5
aF0.69999999999999996
aF0.29999999999999999
aF0.29999999999999999
aF0.29999999999999999
aaa(lp206
(lp207
F0.69999999999999996
aF0.80000000000000004
aF0.80000000000000004
aF0.10000000000000001
aF0.10000000000000001
aF0.20000000000000001
aa(lp208
F0.29999999999999999
aF0.40000000000000002
aF0.40000000000000002
aF0.5
aF0.5
aF0.59999999999999998
aa(lp209
F0
aF0.29999999999999999
aF0.29999999999999999
aF0.40000000000000002
aF0.59999999999999998
aF0.69999999999999996
aaa(lp210
(lp211
F0.10000000000000001
aF0.20000000000000001
aF0.20000000000000001
aF0.5
aF0.59999999999999998
aF0.69999999999999996
aa(lp212
F0.29999999999999999
aF0.40000000000000002
aF0.40000000000000002
aF0.5
aF0.5
aF0.5
aa(lp213
F0.5
aF0.59999999999999998
aF0.59999999999999998
aF0.20000000000000001
aF0.20000000000000001
aF0.29999999999999999
aaa(lp214
(lp215
F0.10000000000000001
aF0.20000000000000001
aF0.20000000000000001
aF0.5
aF0.59999999999999998
aF0.69999999999999996
aa(lp216
F0.20000000000000001
aF0.29999999999999999
aF0.29999999999999999
aF0.40000000000000002
aF0.5
aF0.5
aa(lp217
F0.80000000000000004
aF0.80000000000000004
aF0.90000000000000002
aF0
aF0.20000000000000001
aF0.20000000000000001
aaa(lp218
(lp219
F0.40000000000000002
aF0.40000000000000002
aF0.40000000000000002
aF0.5
aF0.5
aF0.59999999999999998
aa(lp220
F0.29999999999999999
aF0.29999999999999999
aF0.5
aF0.40000000000000002
aF0.40000000000000002
aF0.59999999999999998
aa(lp221
F0.5
aF0.69999999999999996
aF0.69999999999999996
aF0.20000000000000001
aF0.20000000000000001
aF0.29999999999999999
aaa(lp222
(lp223
F0.20000000000000001
aF0.29999999999999999
aF0.29999999999999999
aF0.29999999999999999
aF0.5
aF0.59999999999999998
aa(lp224
F0.29999999999999999
aF0.40000000000000002
aF0.40000000000000002
aF0.29999999999999999
aF0.5
aF0.59999999999999998
aa(lp225
F0.69999999999999996
aF0.80000000000000004
aF0.90000000000000002
aF0.10000000000000001
aF0.20000000000000001
aF0.20000000000000001
aaa(lp226
(lp227
F0.29999999999999999
aF0.40000000000000002
aF0.40000000000000002
aF0.40000000000000002
aF0.5
aF0.59999999999999998
aa(lp228
F0.29999999999999999
aF0.5
aF0.59999999999999998
aF0.29999999999999999
aF0.40000000000000002
aF0.59999999999999998
aa(lp229
F0.80000000000000004
aF0.80000000000000004
aF0.80000000000000004
aF0
aF0.10000000000000001
aF0.20000000000000001
aaa(lp230
(lp231
F0.29999999999999999
aF0.40000000000000002
aF0.40000000000000002
aF0.40000000000000002
aF0.5
aF0.59999999999999998
aa(lp232
F0.20000000000000001
aF0.29999999999999999
aF0.40000000000000002
aF0.40000000000000002
aF0.5
aF0.59999999999999998
aa(lp233
F0.59999999999999998
aF0.80000000000000004
aF0.90000000000000002
aF0.10000000000000001
aF0.10000000000000001
aF0.20000000000000001
aaa(lp234
(lp235
F0.10000000000000001
aF0.10000000000000001
aF0.20000000000000001
aF0.5
aF0.69999999999999996
aF0.80000000000000004
aa(lp236
F0.59999999999999998
aF0.69999999999999996
aF0.69999999999999996
aF0.20000000000000001
aF0.20000000000000001
aF0.29999999999999999
aa(lp237
F0.29999999999999999
aF0.40000000000000002
aF0.40000000000000002
aF0.29999999999999999
aF0.40000000000000002
aF0.59999999999999998
aaa(lp238
(lp239
F0
aF0.20000000000000001
aF0.29999999999999999
aF0.5
aF0.59999999999999998
aF0.69999999999999996
aa(lp240
F0.29999999999999999
aF0.40000000000000002
aF0.59999999999999998
aF0.5
aF0.5
aF0.59999999999999998
aa(lp241
F0.59999999999999998
aF0.69999999999999996
aF0.80000000000000004
aF0.10000000000000001
aF0.10000000000000001
aF0.20000000000000001
aaa(lp242
(lp243
F0.10000000000000001
aF0.10000000000000001
aF0.20000000000000001
aF0.5
aF0.59999999999999998
aF0.59999999999999998
aa(lp244
F0.20000000000000001
aF0.29999999999999999
aF0.40000000000000002
aF0.40000000000000002
aF0.40000000000000002
aF0.59999999999999998
aa(lp245
F0.80000000000000004
aF0.80000000000000004
aF0.80000000000000004
aF0.10000000000000001
aF0.20000000000000001
aF0.20000000000000001
aaa(lp246
(lp247
F0.10000000000000001
aF0.20000000000000001
aF0.29999999999999999
aF0.40000000000000002
aF0.59999999999999998
aF0.69999999999999996
aa(lp248
F0.69999999999999996
aF0.69999999999999996
aF0.90000000000000002
aF0
aF0.20000000000000001
aF0.20000000000000001
aa(lp249
F0.29999999999999999
aF0.40000000000000002
aF0.5
aF0.40000000000000002
aF0.40000000000000002
aF0.59999999999999998
aaa(lp250
(lp251
F0.10000000000000001
aF0.10000000000000001
aF0.20000000000000001
aF0.5
aF0.5
aF0.69999999999999996
aa(lp252
F0.20000000000000001
aF0.29999999999999999
aF0.5
aF0.40000000000000002
aF0.5
aF0.59999999999999998
aa(lp253
F0.69999999999999996
aF0.80000000000000004
aF0.90000000000000002
aF0
aF0.20000000000000001
aF0.20000000000000001
aaa(lp254
(lp255
F0.10000000000000001
aF0.10000000000000001
aF0.20000000000000001
aF0.5
aF0.59999999999999998
aF0.69999999999999996
aa(lp256
F0.40000000000000002
aF0.5
aF0.59999999999999998
aF0.29999999999999999
aF0.5
aF0.5
aa(lp257
F0.69999999999999996
aF0.80000000000000004
aF0.90000000000000002
aF0
aF0.10000000000000001
aF0.20000000000000001
aaa(lp258
(lp259
F0.29999999999999999
aF0.29999999999999999
aF0.59999999999999998
aF0.5
aF0.5
aF0.5
aa(lp260
F0.29999999999999999
aF0.40000000000000002
aF0.59999999999999998
aF0.40000000000000002
aF0.5
aF0.59999999999999998
aa(lp261
F0.69999999999999996
aF0.69999999999999996
aF0.80000000000000004
aF0
aF0.20000000000000001
aF0.20000000000000001
aaa(lp262
(lp263
F0.40000000000000002
aF0.40000000000000002
aF0.5
aF0.29999999999999999
aF0.5
aF0.5
aa(lp264
F0.40000000000000002
aF0.40000000000000002
aF0.40000000000000002
aF0.5
aF0.5
aF0.5
aa(lp265
F0.59999999999999998
aF0.80000000000000004
aF0.80000000000000004
aF0
aF0.10000000000000001
aF0.10000000000000001
aaaI3
asS'C8'
p266
(lp267
(lp268
(lp269
F0.80000000000000004
aF0.80000000000000004
aF0.90000000000000002
aF0
aF0.20000000000000001
aF0.20000000000000001
aa(lp270
F0.29999999999999999
aF0.29999999999999999
aF0.29999999999999999
aF0.40000000000000002
aF0.5
aF0.59999999999999998
aa(lp271
F0.20000000000000001
aF0.29999999999999999
aF0.40000000000000002
aF0.5
aF0.5
aF0.59999999999999998
aaa(lp272
(lp273
F0.69999999999999996
aF0.80000000000000004
aF0.90000000000000002
aF0
aF0.10000000000000001
aF0.20000000000000001
aa(lp274
F0.29999999999999999
aF0.40000000000000002
aF0.5
aF0.5
aF0.5
aF0.59999999999999998
aa(lp275
F0.29999999999999999
aF0.29999999999999999
aF0.59999999999999998
aF0.29999999999999999
aF0.40000000000000002
aF0.59999999999999998
aaa(lp276
(lp277
F0.69999999999999996
aF0.80000000000000004
aF0.90000000000000002
aF0.10000000000000001
aF0.20000000000000001
aF0.20000000000000001
aa(lp278
F0.29999999999999999
aF0.40000000000000002
aF0.40000000000000002
aF0.29999999999999999
aF0.5
aF0.59999999999999998
aa(lp279
F0.10000000000000001
aF0.20000000000000001
aF0.29999999999999999
aF0.5
aF0.59999999999999998
aF0.59999999999999998
aaa(lp280
(lp281
F0.10000000000000001
aF0.10000000000000001
aF0.20000000000000001
aF0.40000000000000002
aF0.59999999999999998
aF0.69999999999999996
aa(lp282
F0.29999999999999999
aF0.29999999999999999
aF0.40000000000000002
aF0.40000000000000002
aF0.5
aF0.59999999999999998
aa(lp283
F0.69999999999999996
aF0.80000000000000004
aF0.80000000000000004
aF0.10000000000000001
aF0.10000000000000001
aF0.20000000000000001
aaa(lp284
(lp285
F0.59999999999999998
aF0.59999999999999998
aF0.80000000000000004
aF0.29999999999999999
aF0.29999999999999999
aF0.40000000000000002
aa(lp286
F0.29999999999999999
aF0.29999999999999999
aF0.5
aF0.40000000000000002
aF0.5
aF0.59999999999999998
aa(lp287
F0.29999999999999999
aF0.29999999999999999
aF0.40000000000000002
aF0.29999999999999999
aF0.40000000000000002
aF0.5
aaa(lp288
(lp289
F0.10000000000000001
aF0.10000000000000001
aF0.29999999999999999
aF0.5
aF0.59999999999999998
aF0.59999999999999998
aa(lp290
F0.29999999999999999
aF0.40000000000000002
aF0.40000000000000002
aF0.40000000000000002
aF0.40000000000000002
aF0.59999999999999998
aa(lp291
F0.69999999999999996
aF0.69999999999999996
aF0.80000000000000004
aF0.10000000000000001
aF0.10000000000000001
aF0.20000000000000001
aaa(lp292
(lp293
F0.40000000000000002
aF0.40000000000000002
aF0.5
aF0.29999999999999999
aF0.40000000000000002
aF0.5
aa(lp294
F0.5
aF0.5
aF0.69999999999999996
aF0.20000000000000001
aF0.29999999999999999
aF0.29999999999999999
aa(lp295
F0.10000000000000001
aF0.10000000000000001
aF0.20000000000000001
aF0.5
aF0.59999999999999998
aF0.69999999999999996
aaa(lp296
(lp297
F0.69999999999999996
aF0.80000000000000004
aF0.90000000000000002
aF0.10000000000000001
aF0.10000000000000001
aF0.20000000000000001
aa(lp298
F0.40000000000000002
aF0.40000000000000002
aF0.5
aF0.40000000000000002
aF0.5
aF0.59999999999999998
aa(lp299
F0
aF0.10000000000000001
aF0.20000000000000001
aF0.5
aF0.59999999999999998
aF0.59999999999999998
aaa(lp300
(lp301
F0.10000000000000001
aF0.10000000000000001
aF0.20000000000000001
aF0.59999999999999998
aF0.69999999999999996
aF0.69999999999999996
aa(lp302
F0.69999999999999996
aF0.80000000000000004
aF0.80000000000000004
aF0
aF0.10000000000000001
aF0.20000000000000001
aa(lp303
F0.20000000000000001
aF0.5
aF0.59999999999999998
aF0.5
aF0.5
aF0.59999999999999998
aaa(lp304
(lp305
F0.5
aF0.59999999999999998
aF0.59999999999999998
aF0.20000000000000001
aF0.29999999999999999
aF0.29999999999999999
aa(lp306
F0.20000000000000001
aF0.29999999999999999
aF0.29999999999999999
aF0.5
aF0.5
aF0.5
aa(lp307
F0.29999999999999999
aF0.40000000000000002
aF0.5
aF0.29999999999999999
aF0.5
aF0.59999999999999998
aaa(lp308
(lp309
F0.10000000000000001
aF0.10000000000000001
aF0.29999999999999999
aF0.69999999999999996
aF0.69999999999999996
aF0.69999999999999996
aa(lp310
F0.40000000000000002
aF0.40000000000000002
aF0.59999999999999998
aF0.5
aF0.5
aF0.59999999999999998
aa(lp311
F0.80000000000000004
aF0.80000000000000004
aF0.90000000000000002
aF0
aF0.10000000000000001
aF0.20000000000000001
aaa(lp312
(lp313
F0
aF0.10000000000000001
aF0.29999999999999999
aF0.5
aF0.59999999999999998
aF0.59999999999999998
aa(lp314
F0.29999999999999999
aF0.40000000000000002
aF0.40000000000000002
aF0.40000000000000002
aF0.5
aF0.59999999999999998
aa(lp315
F0.69999999999999996
aF0.80000000000000004
aF0.80000000000000004
aF0.10000000000000001
aF0.10000000000000001
aF0.20000000000000001
aaa(lp316
(lp317
F0.80000000000000004
aF0.80000000000000004
aF0.90000000000000002
aF0
aF0.10000000000000001
aF0.20000000000000001
aa(lp318
F0.20000000000000001
aF0.29999999999999999
aF0.40000000000000002
aF0.40000000000000002
aF0.5
aF0.59999999999999998
aa(lp319
F0.20000000000000001
aF0.29999999999999999
aF0.40000000000000002
aF0.29999999999999999
aF0.5
aF0.5
aaa(lp320
(lp321
F0.69999999999999996
aF0.80000000000000004
aF0.80000000000000004
aF0
aF0.10000000000000001
aF0.20000000000000001
aa(lp322
F0.20000000000000001
aF0.29999999999999999
aF0.5
aF0.29999999999999999
aF0.40000000000000002
aF0.59999999999999998
aa(lp323
F0
aF0.10000000000000001
aF0.29999999999999999
aF0.5
aF0.59999999999999998
aF0.59999999999999998
aaa(lp324
(lp325
F0.29999999999999999
aF0.40000000000000002
aF0.5
aF0.5
aF0.5
aF0.5
aa(lp326
F0.20000000000000001
aF0.40000000000000002
aF0.5
aF0.5
aF0.5
aF0.59999999999999998
aa(lp327
F0.69999999999999996
aF0.80000000000000004
aF0.90000000000000002
aF0.10000000000000001
aF0.10000000000000001
aF0.20000000000000001
aaa(lp328
(lp329
F0.69999999999999996
aF0.80000000000000004
aF0.90000000000000002
aF0
aF0.10000000000000001
aF0.20000000000000001
aa(lp330
F0.29999999999999999
aF0.29999999999999999
aF0.40000000000000002
aF0.29999999999999999
aF0.40000000000000002
aF0.59999999999999998
aa(lp331
F0.10000000000000001
aF0.20000000000000001
aF0.20000000000000001
aF0.40000000000000002
aF0.59999999999999998
aF0.59999999999999998
aaaI1
asS'C14'
p332
(lp333
(lp334
(lp335
F0
aF0.29999999999999999
aF0.29999999999999999
aF0.59999999999999998
aF0.69999999999999996
aF0.69999999999999996
aa(lp336
F0.69999999999999996
aF0.80000000000000004
aF0.80000000000000004
aF0
aF0.10000000000000001
aF0.20000000000000001
aa(lp337
F0.20000000000000001
aF0.29999999999999999
aF0.29999999999999999
aF0.5
aF0.5
aF0.5
aaa(lp338
(lp339
F0
aF0.10000000000000001
aF0.20000000000000001
aF0.40000000000000002
aF0.59999999999999998
aF0.59999999999999998
aa(lp340
F0.59999999999999998
aF0.69999999999999996
aF0.80000000000000004
aF0.20000000000000001
aF0.20000000000000001
aF0.29999999999999999
aa(lp341
F0.29999999999999999
aF0.40000000000000002
aF0.5
aF0.5
aF0.5
aF0.59999999999999998
aaa(lp342
(lp343
F0.10000000000000001
aF0.20000000000000001
aF0.20000000000000001
aF0.5
aF0.59999999999999998
aF0.69999999999999996
aa(lp344
F0.80000000000000004
aF0.80000000000000004
aF0.90000000000000002
aF0
aF0.10000000000000001
aF0.20000000000000001
aa(lp345
F0.40000000000000002
aF0.40000000000000002
aF0.5
aF0.5
aF0.5
aF0.59999999999999998
aaa(lp346
(lp347
F0.20000000000000001
aF0.29999999999999999
aF0.40000000000000002
aF0.40000000000000002
aF0.40000000000000002
aF0.59999999999999998
aa(lp348
F0.69999999999999996
aF0.80000000000000004
aF0.90000000000000002
aF0
aF0.20000000000000001
aF0.20000000000000001
aa(lp349
F0
aF0.10000000000000001
aF0.29999999999999999
aF0.59999999999999998
aF0.59999999999999998
aF0.69999999999999996
aaa(lp350
(lp351
F0.10000000000000001
aF0.20000000000000001
aF0.20000000000000001
aF0.5
aF0.59999999999999998
aF0.69999999999999996
aa(lp352
F0.59999999999999998
aF0.59999999999999998
aF0.80000000000000004
aF0.20000000000000001
aF0.29999999999999999
aF0.29999999999999999
aa(lp353
F0.20000000000000001
aF0.29999999999999999
aF0.40000000000000002
aF0.5
aF0.5
aF0.59999999999999998
aaa(lp354
(lp355
F0.10000000000000001
aF0.10000000000000001
aF0.20000000000000001
aF0.5
aF0.59999999999999998
aF0.69999999999999996
aa(lp356
F0.69999999999999996
aF0.80000000000000004
aF0.90000000000000002
aF0.10000000000000001
aF0.10000000000000001
aF0.20000000000000001
aa(lp357
F0.29999999999999999
aF0.29999999999999999
aF0.40000000000000002
aF0.40000000000000002
aF0.40000000000000002
aF0.5
aaa(lp358
(lp359
F0
aF0.10000000000000001
aF0.29999999999999999
aF0.59999999999999998
aF0.69999999999999996
aF0.69999999999999996
aa(lp360
F0.69999999999999996
aF0.80000000000000004
aF0.80000000000000004
aF0
aF0.10000000000000001
aF0.20000000000000001
aa(lp361
F0.20000000000000001
aF0.29999999999999999
aF0.40000000000000002
aF0.40000000000000002
aF0.5
aF0.5
aaa(lp362
(lp363
F0.69999999999999996
aF0.80000000000000004
aF0.90000000000000002
aF0.10000000000000001
aF0.10000000000000001
aF0.10000000000000001
aa(lp364
F0.40000000000000002
aF0.40000000000000002
aF0.5
aF0.5
aF0.5
aF0.59999999999999998
aa(lp365
F0.10000000000000001
aF0.10000000000000001
aF0.10000000000000001
aF0.40000000000000002
aF0.59999999999999998
aF0.69999999999999996
aaa(lp366
(lp367
F0
aF0.20000000000000001
aF0.20000000000000001
aF0.5
aF0.59999999999999998
aF0.69999999999999996
aa(lp368
F0.5
aF0.59999999999999998
aF0.59999999999999998
aF0.29999999999999999
aF0.29999999999999999
aF0.29999999999999999
aa(lp369
F0.29999999999999999
aF0.40000000000000002
aF0.40000000000000002
aF0.40000000000000002
aF0.5
aF0.5
aaa(lp370
(lp371
F0.20000000000000001
aF0.40000000000000002
aF0.40000000000000002
aF0.40000000000000002
aF0.5
aF0.5
aa(lp372
F0.59999999999999998
aF0.69999999999999996
aF0.69999999999999996
aF0.29999999999999999
aF0.29999999999999999
aF0.40000000000000002
aa(lp373
F0.10000000000000001
aF0.10000000000000001
aF0.20000000000000001
aF0.5
aF0.5
aF0.80000000000000004
aaa(lp374
(lp375
F0
aF0.10000000000000001
aF0.10000000000000001
aF0.5
aF0.59999999999999998
aF0.69999999999999996
aa(lp376
F0.69999999999999996
aF0.80000000000000004
aF0.90000000000000002
aF0
aF0.10000000000000001
aF0.20000000000000001
aa(lp377
F0.29999999999999999
aF0.29999999999999999
aF0.29999999999999999
aF0.40000000000000002
aF0.5
aF0.59999999999999998
aaa(lp378
(lp379
F0.69999999999999996
aF0.80000000000000004
aF0.80000000000000004
aF0
aF0.10000000000000001
aF0.20000000000000001
aa(lp380
F0.29999999999999999
aF0.40000000000000002
aF0.59999999999999998
aF0.40000000000000002
aF0.40000000000000002
aF0.59999999999999998
aa(lp381
F0.10000000000000001
aF0.20000000000000001
aF0.29999999999999999
aF0.5
aF0.59999999999999998
aF0.69999999999999996
aaa(lp382
(lp383
F0.10000000000000001
aF0.10000000000000001
aF0.10000000000000001
aF0.5
aF0.59999999999999998
aF0.69999999999999996
aa(lp384
F0.5
aF0.59999999999999998
aF0.69999999999999996
aF0.20000000000000001
aF0.29999999999999999
aF0.40000000000000002
aa(lp385
F0.20000000000000001
aF0.29999999999999999
aF0.29999999999999999
aF0.40000000000000002
aF0.5
aF0.59999999999999998
aaa(lp386
(lp387
F0.69999999999999996
aF0.80000000000000004
aF0.90000000000000002
aF0
aF0.20000000000000001
aF0.20000000000000001
aa(lp388
F0.20000000000000001
aF0.40000000000000002
aF0.5
aF0.40000000000000002
aF0.5
aF0.59999999999999998
aa(lp389
F0.20000000000000001
aF0.40000000000000002
aF0.5
aF0.29999999999999999
aF0.5
aF0.59999999999999998
aaa(lp390
(lp391
F0.29999999999999999
aF0.29999999999999999
aF0.40000000000000002
aF0.5
aF0.5
aF0.59999999999999998
aa(lp392
F0.59999999999999998
aF0.69999999999999996
aF0.80000000000000004
aF0
aF0.10000000000000001
aF0.20000000000000001
aa(lp393
F0.10000000000000001
aF0.10000000000000001
aF0.20000000000000001
aF0.5
aF0.5
aF0.69999999999999996
aaa(lp394
(lp395
F0.5
aF0.59999999999999998
aF0.69999999999999996
aF0.20000000000000001
aF0.20000000000000001
aF0.29999999999999999
aa(lp396
F0.20000000000000001
aF0.29999999999999999
aF0.29999999999999999
aF0.5
aF0.5
aF0.59999999999999998
aa(lp397
F0.10000000000000001
aF0.20000000000000001
aF0.20000000000000001
aF0.40000000000000002
aF0.59999999999999998
aF0.59999999999999998
aaaI2
asS'C12'
p398
(lp399
(lp400
(lp401
F0.10000000000000001
aF0.20000000000000001
aF0.29999999999999999
aF0.5
aF0.59999999999999998
aF0.59999999999999998
aa(lp402
F0.20000000000000001
aF0.40000000000000002
aF0.59999999999999998
aF0.29999999999999999
aF0.5
aF0.59999999999999998
aa(lp403
F0.69999999999999996
aF0.80000000000000004
aF0.80000000000000004
aF0
aF0.10000000000000001
aF0.20000000000000001
aaa(lp404
(lp405
F0
aF0.20000000000000001
aF0.20000000000000001
aF0.5
aF0.5
aF0.59999999999999998
aa(lp406
F0.80000000000000004
aF0.80000000000000004
aF0.80000000000000004
aF0
aF0.10000000000000001
aF0.20000000000000001
aa(lp407
F0.20000000000000001
aF0.29999999999999999
aF0.40000000000000002
aF0.29999999999999999
aF0.5
aF0.59999999999999998
aaa(lp408
(lp409
F0
aF0.10000000000000001
aF0.29999999999999999
aF0.59999999999999998
aF0.59999999999999998
aF0.69999999999999996
aa(lp410
F0.29999999999999999
aF0.29999999999999999
aF0.40000000000000002
aF0.29999999999999999
aF0.5
aF0.5
aa(lp411
F0.69999999999999996
aF0.80000000000000004
aF0.90000000000000002
aF0.10000000000000001
aF0.10000000000000001
aF0.20000000000000001
aaa(lp412
(lp413
F0.10000000000000001
aF0.10000000000000001
aF0.20000000000000001
aF0.40000000000000002
aF0.59999999999999998
aF0.69999999999999996
aa(lp414
F0.29999999999999999
aF0.40000000000000002
aF0.5
aF0.40000000000000002
aF0.5
aF0.5
aa(lp415
F0.5
aF0.5
aF0.59999999999999998
aF0.20000000000000001
aF0.29999999999999999
aF0.29999999999999999
aaa(lp416
(lp417
F0
aF0.20000000000000001
aF0.29999999999999999
aF0.40000000000000002
aF0.59999999999999998
aF0.59999999999999998
aa(lp418
F0.69999999999999996
aF0.80000000000000004
aF0.90000000000000002
aF0
aF0.10000000000000001
aF0.20000000000000001
aa(lp419
F0.29999999999999999
aF0.29999999999999999
aF0.59999999999999998
aF0.29999999999999999
aF0.40000000000000002
aF0.59999999999999998
aaa(lp420
(lp421
F0.20000000000000001
aF0.29999999999999999
aF0.40000000000000002
aF0.5
aF0.5
aF0.5
aa(lp422
F0.29999999999999999
aF0.29999999999999999
aF0.40000000000000002
aF0.29999999999999999
aF0.5
aF0.5
aa(lp423
F0.69999999999999996
aF0.69999999999999996
aF0.80000000000000004
aF0
aF0.10000000000000001
aF0.20000000000000001
aaa(lp424
(lp425
F0.29999999999999999
aF0.40000000000000002
aF0.59999999999999998
aF0.29999999999999999
aF0.5
aF0.5
aa(lp426
F0.29999999999999999
aF0.40000000000000002
aF0.40000000000000002
aF0.5
aF0.5
aF0.59999999999999998
aa(lp427
F0.69999999999999996
aF0.80000000000000004
aF0.90000000000000002
aF0
aF0.10000000000000001
aF0.10000000000000001
aaa(lp428
(lp429
F0.20000000000000001
aF0.40000000000000002
aF0.5
aF0.29999999999999999
aF0.5
aF0.59999999999999998
aa(lp430
F0.69999999999999996
aF0.69999999999999996
aF0.90000000000000002
aF0.10000000000000001
aF0.10000000000000001
aF0.10000000000000001
aa(lp431
F0.10000000000000001
aF0.20000000000000001
aF0.20000000000000001
aF0.5
aF0.5
aF0.59999999999999998
aaa(lp432
(lp433
F0
aF0.20000000000000001
aF0.29999999999999999
aF0.5
aF0.59999999999999998
aF0.69999999999999996
aa(lp434
F0.20000000000000001
aF0.40000000000000002
aF0.5
aF0.5
aF0.5
aF0.5
aa(lp435
F0.59999999999999998
aF0.80000000000000004
aF0.90000000000000002
aF0.10000000000000001
aF0.10000000000000001
aF0.10000000000000001
aaa(lp436
(lp437
F0.59999999999999998
aF0.69999999999999996
aF0.90000000000000002
aF0.10000000000000001
aF0.20000000000000001
aF0.20000000000000001
aa(lp438
F0.29999999999999999
aF0.40000000000000002
aF0.40000000000000002
aF0.29999999999999999
aF0.5
aF0.59999999999999998
aa(lp439
F0.10000000000000001
aF0.10000000000000001
aF0.20000000000000001
aF0.40000000000000002
aF0.59999999999999998
aF0.59999999999999998
aaa(lp440
(lp441
F0.10000000000000001
aF0.20000000000000001
aF0.29999999999999999
aF0.40000000000000002
aF0.5
aF0.69999999999999996
aa(lp442
F0.59999999999999998
aF0.59999999999999998
aF0.80000000000000004
aF0.29999999999999999
aF0.29999999999999999
aF0.40000000000000002
aa(lp443
F0.29999999999999999
aF0.40000000000000002
aF0.5
aF0.29999999999999999
aF0.5
aF0.59999999999999998
aaa(lp444
(lp445
F0.10000000000000001
aF0.20000000000000001
aF0.20000000000000001
aF0.40000000000000002
aF0.59999999999999998
aF0.69999999999999996
aa(lp446
F0.29999999999999999
aF0.29999999999999999
aF0.59999999999999998
aF0.40000000000000002
aF0.5
aF0.59999999999999998
aa(lp447
F0.69999999999999996
aF0.69999999999999996
aF0.90000000000000002
aF0
aF0.10000000000000001
aF0.20000000000000001
aaa(lp448
(lp449
F0.29999999999999999
aF0.29999999999999999
aF0.29999999999999999
aF0.5
aF0.5
aF0.59999999999999998
aa(lp450
F0.5
aF0.5
aF0.59999999999999998
aF0.20000000000000001
aF0.29999999999999999
aF0.40000000000000002
aa(lp451
F0.10000000000000001
aF0.20000000000000001
aF0.29999999999999999
aF0.40000000000000002
aF0.59999999999999998
aF0.69999999999999996
aaa(lp452
(lp453
F0.10000000000000001
aF0.20000000000000001
aF0.29999999999999999
aF0.5
aF0.59999999999999998
aF0.69999999999999996
aa(lp454
F0.20000000000000001
aF0.5
aF0.59999999999999998
aF0.5
aF0.5
aF0.5
aa(lp455
F0.59999999999999998
aF0.69999999999999996
aF0.90000000000000002
aF0
aF0.10000000000000001
aF0.10000000000000001
aaa(lp456
(lp457
F0.29999999999999999
aF0.29999999999999999
aF0.40000000000000002
aF0.40000000000000002
aF0.5
aF0.59999999999999998
aa(lp458
F0.40000000000000002
aF0.5
aF0.59999999999999998
aF0.40000000000000002
aF0.5
aF0.59999999999999998
aa(lp459
F0.5
aF0.5
aF0.59999999999999998
aF0.29999999999999999
aF0.29999999999999999
aF0.40000000000000002
aaa(lp460
(lp461
F0.29999999999999999
aF0.29999999999999999
aF0.59999999999999998
aF0.40000000000000002
aF0.5
aF0.59999999999999998
aa(lp462
F0.20000000000000001
aF0.40000000000000002
aF0.40000000000000002
aF0.5
aF0.5
aF0.59999999999999998
aa(lp463
F0.59999999999999998
aF0.69999999999999996
aF0.80000000000000004
aF0.10000000000000001
aF0.10000000000000001
aF0.20000000000000001
aaaI3
asS'C3'
p464
(lp465
(lp466
(lp467
F0.59999999999999998
aF0.69999999999999996
aF0.80000000000000004
aF0
aF0.20000000000000001
aF0.20000000000000001
aa(lp468
F0.29999999999999999
aF0.40000000000000002
aF0.40000000000000002
aF0.40000000000000002
aF0.5
aF0.59999999999999998
aa(lp469
F0.10000000000000001
aF0.20000000000000001
aF0.20000000000000001
aF0.59999999999999998
aF0.69999999999999996
aF0.80000000000000004
aaa(lp470
(lp471
F0.5
aF0.5
aF0.59999999999999998
aF0.20000000000000001
aF0.29999999999999999
aF0.40000000000000002
aa(lp472
F0.29999999999999999
aF0.29999999999999999
aF0.40000000000000002
aF0.40000000000000002
aF0.40000000000000002
aF0.59999999999999998
aa(lp473
F0.29999999999999999
aF0.40000000000000002
aF0.59999999999999998
aF0.40000000000000002
aF0.5
aF0.59999999999999998
aaa(lp474
(lp475
F0.80000000000000004
aF0.80000000000000004
aF0.80000000000000004
aF0.10000000000000001
aF0.10000000000000001
aF0.20000000000000001
aa(lp476
F0.20000000000000001
aF0.29999999999999999
aF0.29999999999999999
aF0.40000000000000002
aF0.5
aF0.59999999999999998
aa(lp477
F0
aF0.20000000000000001
aF0.20000000000000001
aF0.5
aF0.59999999999999998
aF0.59999999999999998
aaa(lp478
(lp479
F0.69999999999999996
aF0.80000000000000004
aF0.90000000000000002
aF0.10000000000000001
aF0.20000000000000001
aF0.20000000000000001
aa(lp480
F0.20000000000000001
aF0.29999999999999999
aF0.59999999999999998
aF0.40000000000000002
aF0.5
aF0.5
aa(lp481
F0.29999999999999999
aF0.40000000000000002
aF0.40000000000000002
aF0.5
aF0.5
aF0.5
aaa(lp482
(lp483
F0.20000000000000001
aF0.5
aF0.59999999999999998
aF0.29999999999999999
aF0.5
aF0.59999999999999998
aa(lp484
F0.29999999999999999
aF0.40000000000000002
aF0.5
aF0.5
aF0.5
aF0.59999999999999998
aa(lp485
F0.59999999999999998
aF0.80000000000000004
aF0.90000000000000002
aF0
aF0.10000000000000001
aF0.10000000000000001
aaa(lp486
(lp487
F0.29999999999999999
aF0.40000000000000002
aF0.40000000000000002
aF0.40000000000000002
aF0.40000000000000002
aF0.59999999999999998
aa(lp488
F0.20000000000000001
aF0.40000000000000002
aF0.40000000000000002
aF0.40000000000000002
aF0.40000000000000002
aF0.59999999999999998
aa(lp489
F0.69999999999999996
aF0.80000000000000004
aF0.90000000000000002
aF0
aF0.10000000000000001
aF0.20000000000000001
aaa(lp490
(lp491
F0
aF0.29999999999999999
aF0.29999999999999999
aF0.5
aF0.69999999999999996
aF0.69999999999999996
aa(lp492
F0.69999999999999996
aF0.80000000000000004
aF0.90000000000000002
aF0
aF0.10000000000000001
aF0.10000000000000001
aa(lp493
F0.29999999999999999
aF0.40000000000000002
aF0.40000000000000002
aF0.29999999999999999
aF0.40000000000000002
aF0.59999999999999998
aaa(lp494
(lp495
F0.69999999999999996
aF0.80000000000000004
aF0.90000000000000002
aF0
aF0.20000000000000001
aF0.20000000000000001
aa(lp496
F0.29999999999999999
aF0.40000000000000002
aF0.40000000000000002
aF0.40000000000000002
aF0.5
aF0.59999999999999998
aa(lp497
F0.20000000000000001
aF0.29999999999999999
aF0.40000000000000002
aF0.29999999999999999
aF0.5
aF0.59999999999999998
aaa(lp498
(lp499
F0.10000000000000001
aF0.10000000000000001
aF0.20000000000000001
aF0.40000000000000002
aF0.5
aF0.59999999999999998
aa(lp500
F0.69999999999999996
aF0.80000000000000004
aF0.80000000000000004
aF0
aF0.20000000000000001
aF0.20000000000000001
aa(lp501
F0.20000000000000001
aF0.29999999999999999
aF0.40000000000000002
aF0.5
aF0.5
aF0.5
aaa(lp502
(lp503
F0.29999999999999999
aF0.40000000000000002
aF0.5
aF0.40000000000000002
aF0.40000000000000002
aF0.59999999999999998
aa(lp504
F0.20000000000000001
aF0.29999999999999999
aF0.40000000000000002
aF0.40000000000000002
aF0.5
aF0.59999999999999998
aa(lp505
F0.69999999999999996
aF0.80000000000000004
aF0.80000000000000004
aF0.10000000000000001
aF0.10000000000000001
aF0.20000000000000001
aaa(lp506
(lp507
F0.69999999999999996
aF0.69999999999999996
aF0.80000000000000004
aF0
aF0.10000000000000001
aF0.20000000000000001
aa(lp508
F0.29999999999999999
aF0.40000000000000002
aF0.5
aF0.40000000000000002
aF0.5
aF0.59999999999999998
aa(lp509
F0.10000000000000001
aF0.20000000000000001
aF0.20000000000000001
aF0.5
aF0.59999999999999998
aF0.59999999999999998
aaa(lp510
(lp511
F0.59999999999999998
aF0.80000000000000004
aF0.90000000000000002
aF0.10000000000000001
aF0.10000000000000001
aF0.10000000000000001
aa(lp512
F0.40000000000000002
aF0.40000000000000002
aF0.5
aF0.40000000000000002
aF0.5
aF0.59999999999999998
aa(lp513
F0.10000000000000001
aF0.10000000000000001
aF0.20000000000000001
aF0.5
aF0.59999999999999998
aF0.80000000000000004
aaa(lp514
(lp515
F0.10000000000000001
aF0.10000000000000001
aF0.20000000000000001
aF0.40000000000000002
aF0.59999999999999998
aF0.59999999999999998
aa(lp516
F0.5
aF0.59999999999999998
aF0.59999999999999998
aF0.29999999999999999
aF0.29999999999999999
aF0.29999999999999999
aa(lp517
F0.20000000000000001
aF0.29999999999999999
aF0.59999999999999998
aF0.5
aF0.5
aF0.59999999999999998
aaa(lp518
(lp519
F0.59999999999999998
aF0.80000000000000004
aF0.80000000000000004
aF0.10000000000000001
aF0.20000000000000001
aF0.20000000000000001
aa(lp520
F0.29999999999999999
aF0.29999999999999999
aF0.29999999999999999
aF0.5
aF0.5
aF0.59999999999999998
aa(lp521
F0.10000000000000001
aF0.10000000000000001
aF0.29999999999999999
aF0.5
aF0.59999999999999998
aF0.69999999999999996
aaa(lp522
(lp523
F0.69999999999999996
aF0.80000000000000004
aF0.80000000000000004
aF0
aF0.10000000000000001
aF0.20000000000000001
aa(lp524
F0.20000000000000001
aF0.29999999999999999
aF0.29999999999999999
aF0.40000000000000002
aF0.5
aF0.59999999999999998
aa(lp525
F0
aF0.20000000000000001
aF0.29999999999999999
aF0.40000000000000002
aF0.59999999999999998
aF0.69999999999999996
aaa(lp526
(lp527
F0
aF0.20000000000000001
aF0.29999999999999999
aF0.40000000000000002
aF0.5
aF0.69999999999999996
aa(lp528
F0.29999999999999999
aF0.40000000000000002
aF0.40000000000000002
aF0.40000000000000002
aF0.5
aF0.59999999999999998
aa(lp529
F0.69999999999999996
aF0.80000000000000004
aF0.80000000000000004
aF0.10000000000000001
aF0.20000000000000001
aF0.20000000000000001
aaaI1
asS'C2'
p530
(lp531
(lp532
(lp533
F0.10000000000000001
aF0.20000000000000001
aF0.29999999999999999
aF0.5
aF0.59999999999999998
aF0.59999999999999998
aa(lp534
F0.29999999999999999
aF0.29999999999999999
aF0.59999999999999998
aF0.29999999999999999
aF0.5
aF0.59999999999999998
aa(lp535
F0.69999999999999996
aF0.69999999999999996
aF0.90000000000000002
aF0
aF0.10000000000000001
aF0.20000000000000001
aaa(lp536
(lp537
F0
aF0.20000000000000001
aF0.20000000000000001
aF0.5
aF0.59999999999999998
aF0.69999999999999996
aa(lp538
F0.29999999999999999
aF0.40000000000000002
aF0.40000000000000002
aF0.29999999999999999
aF0.40000000000000002
aF0.59999999999999998
aa(lp539
F0.69999999999999996
aF0.80000000000000004
aF0.80000000000000004
aF0
aF0.10000000000000001
aF0.20000000000000001
aaa(lp540
(lp541
F0.20000000000000001
aF0.29999999999999999
aF0.40000000000000002
aF0.40000000000000002
aF0.5
aF0.59999999999999998
aa(lp542
F0.29999999999999999
aF0.40000000000000002
aF0.59999999999999998
aF0.40000000000000002
aF0.5
aF0.59999999999999998
aa(lp543
F0.5
aF0.59999999999999998
aF0.59999999999999998
aF0.29999999999999999
aF0.29999999999999999
aF0.40000000000000002
aaa(lp544
(lp545
F0.29999999999999999
aF0.40000000000000002
aF0.40000000000000002
aF0.5
aF0.5
aF0.5
aa(lp546
F0.20000000000000001
aF0.29999999999999999
aF0.5
aF0.29999999999999999
aF0.40000000000000002
aF0.59999999999999998
aa(lp547
F0.59999999999999998
aF0.69999999999999996
aF0.80000000000000004
aF0.20000000000000001
aF0.29999999999999999
aF0.40000000000000002
aaa(lp548
(lp549
F0
aF0.10000000000000001
aF0.20000000000000001
aF0.5
aF0.59999999999999998
aF0.69999999999999996
aa(lp550
F0.80000000000000004
aF0.80000000000000004
aF0.90000000000000002
aF0
aF0.10000000000000001
aF0.20000000000000001
aa(lp551
F0.20000000000000001
aF0.29999999999999999
aF0.40000000000000002
aF0.40000000000000002
aF0.40000000000000002
aF0.59999999999999998
aaa(lp552
(lp553
F0.10000000000000001
aF0.10000000000000001
aF0.20000000000000001
aF0.5
aF0.59999999999999998
aF0.69999999999999996
aa(lp554
F0.20000000000000001
aF0.29999999999999999
aF0.29999999999999999
aF0.29999999999999999
aF0.5
aF0.59999999999999998
aa(lp555
F0.59999999999999998
aF0.80000000000000004
aF0.80000000000000004
aF0
aF0.10000000000000001
aF0.20000000000000001
aaa(lp556
(lp557
F0.59999999999999998
aF0.69999999999999996
aF0.80000000000000004
aF0
aF0.10000000000000001
aF0.20000000000000001
aa(lp558
F0.29999999999999999
aF0.40000000000000002
aF0.59999999999999998
aF0.29999999999999999
aF0.5
aF0.5
aa(lp559
F0.20000000000000001
aF0.29999999999999999
aF0.29999999999999999
aF0.40000000000000002
aF0.5
aF0.59999999999999998
aaa(lp560
(lp561
F0.59999999999999998
aF0.69999999999999996
aF0.69999999999999996
aF0.20000000000000001
aF0.20000000000000001
aF0.29999999999999999
aa(lp562
F0.29999999999999999
aF0.29999999999999999
aF0.59999999999999998
aF0.29999999999999999
aF0.5
aF0.59999999999999998
aa(lp563
F0.20000000000000001
aF0.40000000000000002
aF0.40000000000000002
aF0.40000000000000002
aF0.5
aF0.59999999999999998
aaa(lp564
(lp565
F0.29999999999999999
aF0.29999999999999999
aF0.40000000000000002
aF0.5
aF0.5
aF0.59999999999999998
aa(lp566
F0.69999999999999996
aF0.69999999999999996
aF0.80000000000000004
aF0.10000000000000001
aF0.20000000000000001
aF0.20000000000000001
aa(lp567
F0
aF0.10000000000000001
aF0.20000000000000001
aF0.5
aF0.5
aF0.59999999999999998
aaa(lp568
(lp569
F0.59999999999999998
aF0.69999999999999996
aF0.80000000000000004
aF0.10000000000000001
aF0.10000000000000001
aF0.10000000000000001
aa(lp570
F0.20000000000000001
aF0.40000000000000002
aF0.40000000000000002
aF0.40000000000000002
aF0.5
aF0.59999999999999998
aa(lp571
F0.10000000000000001
aF0.10000000000000001
aF0.20000000000000001
aF0.40000000000000002
aF0.59999999999999998
aF0.69999999999999996
aaa(lp572
(lp573
F0.69999999999999996
aF0.69999999999999996
aF0.90000000000000002
aF0
aF0.10000000000000001
aF0.20000000000000001
aa(lp574
F0.29999999999999999
aF0.40000000000000002
aF0.40000000000000002
aF0.29999999999999999
aF0.40000000000000002
aF0.59999999999999998
aa(lp575
F0.10000000000000001
aF0.10000000000000001
aF0.20000000000000001
aF0.5
aF0.59999999999999998
aF0.69999999999999996
aaa(lp576
(lp577
F0.20000000000000001
aF0.29999999999999999
aF0.40000000000000002
aF0.5
aF0.5
aF0.59999999999999998
aa(lp578
F0.29999999999999999
aF0.29999999999999999
aF0.59999999999999998
aF0.29999999999999999
aF0.40000000000000002
aF0.59999999999999998
aa(lp579
F0.69999999999999996
aF0.80000000000000004
aF0.90000000000000002
aF0
aF0.10000000000000001
aF0.20000000000000001
aaa(lp580
(lp581
F0.10000000000000001
aF0.20000000000000001
aF0.29999999999999999
aF0.40000000000000002
aF0.5
aF0.69999999999999996
aa(lp582
F0.20000000000000001
aF0.29999999999999999
aF0.59999999999999998
aF0.40000000000000002
aF0.5
aF0.59999999999999998
aa(lp583
F0.69999999999999996
aF0.80000000000000004
aF0.90000000000000002
aF0
aF0.20000000000000001
aF0.20000000000000001
aaa(lp584
(lp585
F0.20000000000000001
aF0.5
aF0.59999999999999998
aF0.5
aF0.5
aF0.59999999999999998
aa(lp586
F0.29999999999999999
aF0.29999999999999999
aF0.29999999999999999
aF0.29999999999999999
aF0.5
aF0.59999999999999998
aa(lp587
F0.69999999999999996
aF0.69999999999999996
aF0.90000000000000002
aF0
aF0.10000000000000001
aF0.20000000000000001
aaa(lp588
(lp589
F0.10000000000000001
aF0.10000000000000001
aF0.20000000000000001
aF0.5
aF0.59999999999999998
aF0.69999999999999996
aa(lp590
F0.29999999999999999
aF0.29999999999999999
aF0.40000000000000002
aF0.40000000000000002
aF0.40000000000000002
aF0.5
aa(lp591
F0.69999999999999996
aF0.80000000000000004
aF0.90000000000000002
aF0.10000000000000001
aF0.10000000000000001
aF0.20000000000000001
aaa(lp592
(lp593
F0.29999999999999999
aF0.40000000000000002
aF0.59999999999999998
aF0.29999999999999999
aF0.40000000000000002
aF0.5
aa(lp594
F0.20000000000000001
aF0.40000000000000002
aF0.40000000000000002
aF0.40000000000000002
aF0.5
aF0.59999999999999998
aa(lp595
F0.69999999999999996
aF0.80000000000000004
aF0.90000000000000002
aF0
aF0.10000000000000001
aF0.10000000000000001
aaaI3
asS'C1'
p596
(lp597
(lp598
(lp599
F0.10000000000000001
aF0.20000000000000001
aF0.29999999999999999
aF0.40000000000000002
aF0.59999999999999998
aF0.59999999999999998
aa(lp600
F0.69999999999999996
aF0.80000000000000004
aF0.90000000000000002
aF0.10000000000000001
aF0.10000000000000001
aF0.20000000000000001
aa(lp601
F0.29999999999999999
aF0.29999999999999999
aF0.40000000000000002
aF0.29999999999999999
aF0.40000000000000002
aF0.59999999999999998
aaa(lp602
(lp603
F0.29999999999999999
aF0.40000000000000002
aF0.59999999999999998
aF0.40000000000000002
aF0.5
aF0.59999999999999998
aa(lp604
F0.59999999999999998
aF0.59999999999999998
aF0.80000000000000004
aF0.20000000000000001
aF0.29999999999999999
aF0.40000000000000002
aa(lp605
F0.20000000000000001
aF0.20000000000000001
aF0.20000000000000001
aF0.5
aF0.69999999999999996
aF0.69999999999999996
aaa(lp606
(lp607
F0.29999999999999999
aF0.40000000000000002
aF0.59999999999999998
aF0.40000000000000002
aF0.40000000000000002
aF0.59999999999999998
aa(lp608
F0.69999999999999996
aF0.80000000000000004
aF0.80000000000000004
aF0
aF0.20000000000000001
aF0.20000000000000001
aa(lp609
F0.10000000000000001
aF0.29999999999999999
aF0.29999999999999999
aF0.40000000000000002
aF0.59999999999999998
aF0.69999999999999996
aaa(lp610
(lp611
F0.20000000000000001
aF0.29999999999999999
aF0.40000000000000002
aF0.29999999999999999
aF0.5
aF0.59999999999999998
aa(lp612
F0.5
aF0.69999999999999996
aF0.69999999999999996
aF0.20000000000000001
aF0.20000000000000001
aF0.29999999999999999
aa(lp613
F0.10000000000000001
aF0.20000000000000001
aF0.29999999999999999
aF0.40000000000000002
aF0.5
aF0.59999999999999998
aaa(lp614
(lp615
F0.59999999999999998
aF0.80000000000000004
aF0.90000000000000002
aF0
aF0.10000000000000001
aF0.20000000000000001
aa(lp616
F0.40000000000000002
aF0.40000000000000002
aF0.40000000000000002
aF0.5
aF0.5
aF0.5
aa(lp617
F0
aF0.10000000000000001
aF0.29999999999999999
aF0.59999999999999998
aF0.59999999999999998
aF0.69999999999999996
aaa(lp618
(lp619
F0.5
aF0.59999999999999998
aF0.69999999999999996
aF0.20000000000000001
aF0.29999999999999999
aF0.40000000000000002
aa(lp620
F0.29999999999999999
aF0.40000000000000002
aF0.40000000000000002
aF0.40000000000000002
aF0.5
aF0.59999999999999998
aa(lp621
F0.10000000000000001
aF0.20000000000000001
aF0.20000000000000001
aF0.5
aF0.59999999999999998
aF0.69999999999999996
aaa(lp622
(lp623
F0.29999999999999999
aF0.29999999999999999
aF0.40000000000000002
aF0.40000000000000002
aF0.5
aF0.59999999999999998
aa(lp624
F0.69999999999999996
aF0.69999999999999996
aF0.80000000000000004
aF0.10000000000000001
aF0.10000000000000001
aF0.20000000000000001
aa(lp625
F0.10000000000000001
aF0.10000000000000001
aF0.29999999999999999
aF0.5
aF0.59999999999999998
aF0.69999999999999996
aaa(lp626
(lp627
F0
aF0.10000000000000001
aF0.29999999999999999
aF0.5
aF0.59999999999999998
aF0.69999999999999996
aa(lp628
F0.69999999999999996
aF0.80000000000000004
aF0.80000000000000004
aF0
aF0.20000000000000001
aF0.20000000000000001
aa(lp629
F0.29999999999999999
aF0.40000000000000002
aF0.40000000000000002
aF0.40000000000000002
aF0.5
aF0.59999999999999998
aaa(lp630
(lp631
F0.59999999999999998
aF0.59999999999999998
aF0.80000000000000004
aF0.20000000000000001
aF0.29999999999999999
aF0.29999999999999999
aa(lp632
F0.29999999999999999
aF0.40000000000000002
aF0.40000000000000002
aF0.40000000000000002
aF0.5
aF0.59999999999999998
aa(lp633
F0
aF0.10000000000000001
aF0.20000000000000001
aF0.59999999999999998
aF0.59999999999999998
aF0.59999999999999998
aaa(lp634
(lp635
F0.10000000000000001
aF0.10000000000000001
aF0.20000000000000001
aF0.5
aF0.5
aF0.59999999999999998
aa(lp636
F0.59999999999999998
aF0.80000000000000004
aF0.80000000000000004
aF0
aF0.10000000000000001
aF0.10000000000000001
aa(lp637
F0.20000000000000001
aF0.40000000000000002
aF0.40000000000000002
aF0.5
aF0.5
aF0.59999999999999998
aaa(lp638
(lp639
F0.10000000000000001
aF0.20000000000000001
aF0.20000000000000001
aF0.5
aF0.59999999999999998
aF0.59999999999999998
aa(lp640
F0.59999999999999998
aF0.69999999999999996
aF0.80000000000000004
aF0.10000000000000001
aF0.10000000000000001
aF0.20000000000000001
aa(lp641
F0.29999999999999999
aF0.29999999999999999
aF0.40000000000000002
aF0.5
aF0.5
aF0.59999999999999998
aaa(lp642
(lp643
F0.40000000000000002
aF0.40000000000000002
aF0.5
aF0.40000000000000002
aF0.40000000000000002
aF0.5
aa(lp644
F0.5
aF0.59999999999999998
aF0.69999999999999996
aF0.29999999999999999
aF0.29999999999999999
aF0.40000000000000002
aa(lp645
F0.10000000000000001
aF0.10000000000000001
aF0.20000000000000001
aF0.40000000000000002
aF0.5
aF0.69999999999999996
aaa(lp646
(lp647
F0.10000000000000001
aF0.29999999999999999
aF0.29999999999999999
aF0.5
aF0.5
aF0.69999999999999996
aa(lp648
F0.69999999999999996
aF0.80000000000000004
aF0.80000000000000004
aF0
aF0.10000000000000001
aF0.20000000000000001
aa(lp649
F0.20000000000000001
aF0.29999999999999999
aF0.29999999999999999
aF0.40000000000000002
aF0.5
aF0.5
aaa(lp650
(lp651
F0.40000000000000002
aF0.40000000000000002
aF0.40000000000000002
aF0.29999999999999999
aF0.5
aF0.5
aa(lp652
F0.69999999999999996
aF0.80000000000000004
aF0.90000000000000002
aF0
aF0.10000000000000001
aF0.10000000000000001
aa(lp653
F0.10000000000000001
aF0.20000000000000001
aF0.20000000000000001
aF0.5
aF0.59999999999999998
aF0.59999999999999998
aaa(lp654
(lp655
F0.5
aF0.59999999999999998
aF0.69999999999999996
aF0.29999999999999999
aF0.29999999999999999
aF0.40000000000000002
aa(lp656
F0.29999999999999999
aF0.29999999999999999
aF0.40000000000000002
aF0.40000000000000002
aF0.5
aF0.5
aa(lp657
F0
aF0.20000000000000001
aF0.29999999999999999
aF0.40000000000000002
aF0.59999999999999998
aF0.69999999999999996
aaa(lp658
(lp659
F0
aF0.20000000000000001
aF0.20000000000000001
aF0.5
aF0.5
aF0.59999999999999998
aa(lp660
F0.59999999999999998
aF0.69999999999999996
aF0.90000000000000002
aF0.10000000000000001
aF0.10000000000000001
aF0.20000000000000001
aa(lp661
F0.29999999999999999
aF0.29999999999999999
aF0.59999999999999998
aF0.5
aF0.5
aF0.59999999999999998
aaaI2
asS'C0'
p662
(lp663
(lp664
(lp665
F0.10000000000000001
aF0.10000000000000001
aF0.20000000000000001
aF0.59999999999999998
aF0.59999999999999998
aF0.59999999999999998
aa(lp666
F0.40000000000000002
aF0.40000000000000002
aF0.40000000000000002
aF0.40000000000000002
aF0.5
aF0.59999999999999998
aa(lp667
F0.69999999999999996
aF0.69999999999999996
aF0.80000000000000004
aF0
aF0.10000000000000001
aF0.10000000000000001
aaa(lp668
(lp669
F0.80000000000000004
aF0.80000000000000004
aF0.80000000000000004
aF0.10000000000000001
aF0.10000000000000001
aF0.20000000000000001
aa(lp670
F0.20000000000000001
aF0.40000000000000002
aF0.5
aF0.29999999999999999
aF0.5
aF0.59999999999999998
aa(lp671
F0.10000000000000001
aF0.10000000000000001
aF0.20000000000000001
aF0.5
aF0.59999999999999998
aF0.59999999999999998
aaa(lp672
(lp673
F0.5
aF0.59999999999999998
aF0.69999999999999996
aF0.20000000000000001
aF0.29999999999999999
aF0.29999999999999999
aa(lp674
F0.20000000000000001
aF0.29999999999999999
aF0.40000000000000002
aF0.40000000000000002
aF0.5
aF0.59999999999999998
aa(lp675
F0
aF0.29999999999999999
aF0.40000000000000002
aF0.5
aF0.69999999999999996
aF0.69999999999999996
aaa(lp676
(lp677
F0.10000000000000001
aF0.10000000000000001
aF0.20000000000000001
aF0.5
aF0.5
aF0.59999999999999998
aa(lp678
F0.29999999999999999
aF0.29999999999999999
aF0.40000000000000002
aF0.29999999999999999
aF0.40000000000000002
aF0.59999999999999998
aa(lp679
F0.69999999999999996
aF0.80000000000000004
aF0.80000000000000004
aF0
aF0.10000000000000001
aF0.20000000000000001
aaa(lp680
(lp681
F0.10000000000000001
aF0.29999999999999999
aF0.29999999999999999
aF0.5
aF0.5
aF0.69999999999999996
aa(lp682
F0.29999999999999999
aF0.40000000000000002
aF0.40000000000000002
aF0.40000000000000002
aF0.5
aF0.5
aa(lp683
F0.69999999999999996
aF0.80000000000000004
aF0.90000000000000002
aF0
aF0.10000000000000001
aF0.20000000000000001
aaa(lp684
(lp685
F0.59999999999999998
aF0.69999999999999996
aF0.90000000000000002
aF0
aF0.10000000000000001
aF0.20000000000000001
aa(lp686
F0.29999999999999999
aF0.29999999999999999
aF0.29999999999999999
aF0.29999999999999999
aF0.40000000000000002
aF0.5
aa(lp687
F0.10000000000000001
aF0.20000000000000001
aF0.29999999999999999
aF0.5
aF0.5
aF0.69999999999999996
aaa(lp688
(lp689
F0.5
aF0.5
aF0.59999999999999998
aF0.29999999999999999
aF0.29999999999999999
aF0.29999999999999999
aa(lp690
F0.20000000000000001
aF0.40000000000000002
aF0.40000000000000002
aF0.29999999999999999
aF0.5
aF0.5
aa(lp691
F0.10000000000000001
aF0.20000000000000001
aF0.29999999999999999
aF0.5
aF0.5
aF0.69999999999999996
aaa(lp692
(lp693
F0
aF0.10000000000000001
aF0.20000000000000001
aF0.5
aF0.59999999999999998
aF0.59999999999999998
aa(lp694
F0.69999999999999996
aF0.69999999999999996
aF0.80000000000000004
aF0
aF0.10000000000000001
aF0.20000000000000001
aa(lp695
F0.29999999999999999
aF0.29999999999999999
aF0.29999999999999999
aF0.29999999999999999
aF0.5
aF0.59999999999999998
aaa(lp696
(lp697
F0.20000000000000001
aF0.29999999999999999
aF0.40000000000000002
aF0.5
aF0.5
aF0.59999999999999998
aa(lp698
F0.5
aF0.59999999999999998
aF0.80000000000000004
aF0.29999999999999999
aF0.29999999999999999
aF0.40000000000000002
aa(lp699
F0
aF0.20000000000000001
aF0.20000000000000001
aF0.59999999999999998
aF0.69999999999999996
aF0.80000000000000004
aaa(lp700
(lp701
F0.80000000000000004
aF0.80000000000000004
aF0.90000000000000002
aF0.10000000000000001
aF0.10000000000000001
aF0.20000000000000001
aa(lp702
F0.20000000000000001
aF0.40000000000000002
aF0.40000000000000002
aF0.5
aF0.5
aF0.59999999999999998
aa(lp703
F0.10000000000000001
aF0.29999999999999999
aF0.29999999999999999
aF0.5
aF0.69999999999999996
aF0.80000000000000004
aaa(lp704
(lp705
F0.69999999999999996
aF0.80000000000000004
aF0.80000000000000004
aF0
aF0.10000000000000001
aF0.20000000000000001
aa(lp706
F0.29999999999999999
aF0.40000000000000002
aF0.5
aF0.40000000000000002
aF0.5
aF0.59999999999999998
aa(lp707
F0
aF0.10000000000000001
aF0.10000000000000001
aF0.5
aF0.59999999999999998
aF0.69999999999999996
aaa(lp708
(lp709
F0.20000000000000001
aF0.29999999999999999
aF0.29999999999999999
aF0.5
aF0.5
aF0.5
aa(lp710
F0.40000000000000002
aF0.40000000000000002
aF0.59999999999999998
aF0.40000000000000002
aF0.5
aF0.59999999999999998
aa(lp711
F0.5
aF0.59999999999999998
aF0.69999999999999996
aF0.29999999999999999
aF0.29999999999999999
aF0.29999999999999999
aaa(lp712
(lp713
F0.69999999999999996
aF0.69999999999999996
aF0.80000000000000004
aF0
aF0.10000000000000001
aF0.20000000000000001
aa(lp714
F0.20000000000000001
aF0.29999999999999999
aF0.40000000000000002
aF0.40000000000000002
aF0.5
aF0.5
aa(lp715
F0
aF0.20000000000000001
aF0.20000000000000001
aF0.5
aF0.59999999999999998
aF0.59999999999999998
aaa(lp716
(lp717
F0.20000000000000001
aF0.29999999999999999
aF0.59999999999999998
aF0.40000000000000002
aF0.5
aF0.5
aa(lp718
F0.29999999999999999
aF0.29999999999999999
aF0.29999999999999999
aF0.29999999999999999
aF0.5
aF0.59999999999999998
aa(lp719
F0.5
aF0.59999999999999998
aF0.59999999999999998
aF0.20000000000000001
aF0.29999999999999999
aF0.29999999999999999
aaa(lp720
(lp721
F0.80000000000000004
aF0.80000000000000004
aF0.90000000000000002
aF0
aF0.10000000000000001
aF0.20000000000000001
aa(lp722
F0.29999999999999999
aF0.29999999999999999
aF0.40000000000000002
aF0.40000000000000002
aF0.5
aF0.59999999999999998
aa(lp723
F0
aF0.20000000000000001
aF0.20000000000000001
aF0.40000000000000002
aF0.5
aF0.69999999999999996
aaa(lp724
(lp725
F0.59999999999999998
aF0.69999999999999996
aF0.80000000000000004
aF0
aF0.20000000000000001
aF0.20000000000000001
aa(lp726
F0.20000000000000001
aF0.40000000000000002
aF0.5
aF0.40000000000000002
aF0.40000000000000002
aF0.59999999999999998
aa(lp727
F0.10000000000000001
aF0.10000000000000001
aF0.29999999999999999
aF0.40000000000000002
aF0.5
aF0.69999999999999996
aaaI1
asS'C7'
p728
(lp729
(lp730
(lp731
F0.29999999999999999
aF0.29999999999999999
aF0.40000000000000002
aF0.40000000000000002
aF0.5
aF0.59999999999999998
aa(lp732
F0.69999999999999996
aF0.80000000000000004
aF0.90000000000000002
aF0
aF0.10000000000000001
aF0.20000000000000001
aa(lp733
F0.10000000000000001
aF0.10000000000000001
aF0.29999999999999999
aF0.59999999999999998
aF0.59999999999999998
aF0.69999999999999996
aaa(lp734
(lp735
F0.10000000000000001
aF0.20000000000000001
aF0.20000000000000001
aF0.5
aF0.59999999999999998
aF0.69999999999999996
aa(lp736
F0.5
aF0.69999999999999996
aF0.69999999999999996
aF0.20000000000000001
aF0.20000000000000001
aF0.29999999999999999
aa(lp737
F0.20000000000000001
aF0.29999999999999999
aF0.40000000000000002
aF0.29999999999999999
aF0.5
aF0.59999999999999998
aaa(lp738
(lp739
F0.29999999999999999
aF0.29999999999999999
aF0.40000000000000002
aF0.29999999999999999
aF0.5
aF0.59999999999999998
aa(lp740
F0.69999999999999996
aF0.80000000000000004
aF0.90000000000000002
aF0
aF0.10000000000000001
aF0.10000000000000001
aa(lp741
F0.10000000000000001
aF0.29999999999999999
aF0.29999999999999999
aF0.5
aF0.59999999999999998
aF0.69999999999999996
aaa(lp742
(lp743
F0.59999999999999998
aF0.80000000000000004
aF0.90000000000000002
aF0
aF0.20000000000000001
aF0.20000000000000001
aa(lp744
F0.29999999999999999
aF0.40000000000000002
aF0.40000000000000002
aF0.40000000000000002
aF0.5
aF0.5
aa(lp745
F0.10000000000000001
aF0.10000000000000001
aF0.29999999999999999
aF0.5
aF0.59999999999999998
aF0.59999999999999998
aaa(lp746
(lp747
F0.29999999999999999
aF0.40000000000000002
aF0.40000000000000002
aF0.40000000000000002
aF0.5
aF0.59999999999999998
aa(lp748
F0.5
aF0.69999999999999996
aF0.69999999999999996
aF0.29999999999999999
aF0.29999999999999999
aF0.40000000000000002
aa(lp749
F0
aF0.20000000000000001
aF0.20000000000000001
aF0.59999999999999998
aF0.59999999999999998
aF0.80000000000000004
aaa(lp750
(lp751
F0.29999999999999999
aF0.40000000000000002
aF0.40000000000000002
aF0.29999999999999999
aF0.5
aF0.5
aa(lp752
F0.59999999999999998
aF0.69999999999999996
aF0.90000000000000002
aF0
aF0.10000000000000001
aF0.10000000000000001
aa(lp753
F0.10000000000000001
aF0.20000000000000001
aF0.20000000000000001
aF0.40000000000000002
aF0.5
aF0.69999999999999996
aaa(lp754
(lp755
F0.10000000000000001
aF0.10000000000000001
aF0.20000000000000001
aF0.5
aF0.59999999999999998
aF0.69999999999999996
aa(lp756
F0.29999999999999999
aF0.40000000000000002
aF0.40000000000000002
aF0.5
aF0.5
aF0.59999999999999998
aa(lp757
F0.80000000000000004
aF0.80000000000000004
aF0.90000000000000002
aF0
aF0.10000000000000001
aF0.20000000000000001
aaa(lp758
(lp759
F0
aF0.10000000000000001
aF0.29999999999999999
aF0.5
aF0.69999999999999996
aF0.80000000000000004
aa(lp760
F0.5
aF0.59999999999999998
aF0.80000000000000004
aF0.29999999999999999
aF0.29999999999999999
aF0.40000000000000002
aa(lp761
F0.20000000000000001
aF0.29999999999999999
aF0.29999999999999999
aF0.40000000000000002
aF0.5
aF0.59999999999999998
aaa(lp762
(lp763
F0.5
aF0.59999999999999998
aF0.59999999999999998
aF0.29999999999999999
aF0.29999999999999999
aF0.40000000000000002
aa(lp764
F0.29999999999999999
aF0.40000000000000002
aF0.59999999999999998
aF0.5
aF0.5
aF0.59999999999999998
aa(lp765
F0.29999999999999999
aF0.29999999999999999
aF0.59999999999999998
aF0.29999999999999999
aF0.5
aF0.5
aaa(lp766
(lp767
F0.29999999999999999
aF0.29999999999999999
aF0.40000000000000002
aF0.40000000000000002
aF0.40000000000000002
aF0.5
aa(lp768
F0.59999999999999998
aF0.80000000000000004
aF0.90000000000000002
aF0.10000000000000001
aF0.20000000000000001
aF0.20000000000000001
aa(lp769
F0.10000000000000001
aF0.20000000000000001
aF0.29999999999999999
aF0.5
aF0.59999999999999998
aF0.69999999999999996
aaa(lp770
(lp771
F0.29999999999999999
aF0.40000000000000002
aF0.59999999999999998
aF0.5
aF0.5
aF0.59999999999999998
aa(lp772
F0.59999999999999998
aF0.69999999999999996
aF0.80000000000000004
aF0.10000000000000001
aF0.10000000000000001
aF0.20000000000000001
aa(lp773
F0.10000000000000001
aF0.29999999999999999
aF0.40000000000000002
aF0.59999999999999998
aF0.69999999999999996
aF0.69999999999999996
aaa(lp774
(lp775
F0.10000000000000001
aF0.20000000000000001
aF0.20000000000000001
aF0.40000000000000002
aF0.59999999999999998
aF0.69999999999999996
aa(lp776
F0.59999999999999998
aF0.69999999999999996
aF0.69999999999999996
aF0.29999999999999999
aF0.29999999999999999
aF0.40000000000000002
aa(lp777
F0.29999999999999999
aF0.40000000000000002
aF0.5
aF0.29999999999999999
aF0.5
aF0.59999999999999998
aaa(lp778
(lp779
F0.69999999999999996
aF0.80000000000000004
aF0.80000000000000004
aF0.10000000000000001
aF0.10000000000000001
aF0.20000000000000001
aa(lp780
F0.20000000000000001
aF0.29999999999999999
aF0.59999999999999998
aF0.40000000000000002
aF0.5
aF0.59999999999999998
aa(lp781
F0
aF0.10000000000000001
aF0.20000000000000001
aF0.40000000000000002
aF0.59999999999999998
aF0.59999999999999998
aaa(lp782
(lp783
F0.80000000000000004
aF0.80000000000000004
aF0.80000000000000004
aF0
aF0.10000000000000001
aF0.10000000000000001
aa(lp784
F0.29999999999999999
aF0.40000000000000002
aF0.40000000000000002
aF0.40000000000000002
aF0.5
aF0.5
aa(lp785
F0.29999999999999999
aF0.40000000000000002
aF0.40000000000000002
aF0.5
aF0.5
aF0.59999999999999998
aaa(lp786
(lp787
F0.59999999999999998
aF0.59999999999999998
aF0.69999999999999996
aF0.29999999999999999
aF0.29999999999999999
aF0.29999999999999999
aa(lp788
F0.20000000000000001
aF0.29999999999999999
aF0.29999999999999999
aF0.29999999999999999
aF0.5
aF0.5
aa(lp789
F0.10000000000000001
aF0.20000000000000001
aF0.20000000000000001
aF0.40000000000000002
aF0.59999999999999998
aF0.59999999999999998
aaa(lp790
(lp791
F0.10000000000000001
aF0.10000000000000001
aF0.29999999999999999
aF0.5
aF0.59999999999999998
aF0.59999999999999998
aa(lp792
F0.69999999999999996
aF0.80000000000000004
aF0.80000000000000004
aF0
aF0.10000000000000001
aF0.10000000000000001
aa(lp793
F0.20000000000000001
aF0.40000000000000002
aF0.40000000000000002
aF0.29999999999999999
aF0.5
aF0.59999999999999998
aaaI2
asS'C6'
p794
(lp795
(lp796
(lp797
F0.10000000000000001
aF0.29999999999999999
aF0.40000000000000002
aF0.5
aF0.59999999999999998
aF0.69999999999999996
aa(lp798
F0.69999999999999996
aF0.80000000000000004
aF0.90000000000000002
aF0
aF0.20000000000000001
aF0.20000000000000001
aa(lp799
F0.20000000000000001
aF0.29999999999999999
aF0.59999999999999998
aF0.40000000000000002
aF0.5
aF0.5
aaa(lp800
(lp801
F0.69999999999999996
aF0.69999999999999996
aF0.90000000000000002
aF0.10000000000000001
aF0.10000000000000001
aF0.20000000000000001
aa(lp802
F0.29999999999999999
aF0.29999999999999999
aF0.59999999999999998
aF0.5
aF0.5
aF0.59999999999999998
aa(lp803
F0.29999999999999999
aF0.40000000000000002
aF0.5
aF0.29999999999999999
aF0.5
aF0.5
aaa(lp804
(lp805
F0.10000000000000001
aF0.20000000000000001
aF0.29999999999999999
aF0.5
aF0.5
aF0.69999999999999996
aa(lp806
F0.69999999999999996
aF0.80000000000000004
aF0.80000000000000004
aF0
aF0.20000000000000001
aF0.20000000000000001
aa(lp807
F0.29999999999999999
aF0.40000000000000002
aF0.40000000000000002
aF0.40000000000000002
aF0.40000000000000002
aF0.59999999999999998
aaa(lp808
(lp809
F0.10000000000000001
aF0.20000000000000001
aF0.20000000000000001
aF0.5
aF0.5
aF0.69999999999999996
aa(lp810
F0.20000000000000001
aF0.29999999999999999
aF0.40000000000000002
aF0.29999999999999999
aF0.40000000000000002
aF0.59999999999999998
aa(lp811
F0.69999999999999996
aF0.80000000000000004
aF0.80000000000000004
aF0
aF0.10000000000000001
aF0.20000000000000001
aaa(lp812
(lp813
F0.10000000000000001
aF0.10000000000000001
aF0.20000000000000001
aF0.5
aF0.59999999999999998
aF0.59999999999999998
aa(lp814
F0.69999999999999996
aF0.69999999999999996
aF0.90000000000000002
aF0
aF0.10000000000000001
aF0.20000000000000001
aa(lp815
F0.29999999999999999
aF0.29999999999999999
aF0.59999999999999998
aF0.5
aF0.5
aF0.59999999999999998
aaa(lp816
(lp817
F0.10000000000000001
aF0.10000000000000001
aF0.20000000000000001
aF0.5
aF0.5
aF0.59999999999999998
aa(lp818
F0.69999999999999996
aF0.80000000000000004
aF0.90000000000000002
aF0
aF0.10000000000000001
aF0.10000000000000001
aa(lp819
F0.29999999999999999
aF0.29999999999999999
aF0.5
aF0.40000000000000002
aF0.40000000000000002
aF0.59999999999999998
aaa(lp820
(lp821
F0
aF0.29999999999999999
aF0.29999999999999999
aF0.5
aF0.59999999999999998
aF0.69999999999999996
aa(lp822
F0.5
aF0.69999999999999996
aF0.69999999999999996
aF0.29999999999999999
aF0.29999999999999999
aF0.29999999999999999
aa(lp823
F0.29999999999999999
aF0.40000000000000002
aF0.5
aF0.40000000000000002
aF0.5
aF0.59999999999999998
aaa(lp824
(lp825
F0.29999999999999999
aF0.40000000000000002
aF0.5
aF0.40000000000000002
aF0.40000000000000002
aF0.59999999999999998
aa(lp826
F0.29999999999999999
aF0.29999999999999999
aF0.5
aF0.29999999999999999
aF0.5
aF0.59999999999999998
aa(lp827
F0.69999999999999996
aF0.80000000000000004
aF0.80000000000000004
aF0
aF0.10000000000000001
aF0.20000000000000001
aaa(lp828
(lp829
F0.29999999999999999
aF0.40000000000000002
aF0.5
aF0.40000000000000002
aF0.5
aF0.5
aa(lp830
F0.5
aF0.59999999999999998
aF0.69999999999999996
aF0.29999999999999999
aF0.29999999999999999
aF0.29999999999999999
aa(lp831
F0.10000000000000001
aF0.29999999999999999
aF0.40000000000000002
aF0.69999999999999996
aF0.69999999999999996
aF0.69999999999999996
aaa(lp832
(lp833
F0
aF0.10000000000000001
aF0.40000000000000002
aF0.59999999999999998
aF0.59999999999999998
aF0.80000000000000004
aa(lp834
F0.5
aF0.5
aF0.59999999999999998
aF0.20000000000000001
aF0.29999999999999999
aF0.29999999999999999
aa(lp835
F0.29999999999999999
aF0.29999999999999999
aF0.40000000000000002
aF0.40000000000000002
aF0.5
aF0.59999999999999998
aaa(lp836
(lp837
F0.59999999999999998
aF0.69999999999999996
aF0.69999999999999996
aF0.20000000000000001
aF0.20000000000000001
aF0.29999999999999999
aa(lp838
F0.29999999999999999
aF0.40000000000000002
aF0.40000000000000002
aF0.40000000000000002
aF0.5
aF0.59999999999999998
aa(lp839
F0
aF0.10000000000000001
aF0.20000000000000001
aF0.5
aF0.5
aF0.69999999999999996
aaa(lp840
(lp841
F0.10000000000000001
aF0.20000000000000001
aF0.20000000000000001
aF0.5
aF0.5
aF0.59999999999999998
aa(lp842
F0.69999999999999996
aF0.80000000000000004
aF0.80000000000000004
aF0
aF0.20000000000000001
aF0.20000000000000001
aa(lp843
F0.29999999999999999
aF0.40000000000000002
aF0.59999999999999998
aF0.29999999999999999
aF0.40000000000000002
aF0.59999999999999998
aaa(lp844
(lp845
F0
aF0.20000000000000001
aF0.29999999999999999
aF0.5
aF0.59999999999999998
aF0.69999999999999996
aa(lp846
F0.29999999999999999
aF0.29999999999999999
aF0.40000000000000002
aF0.5
aF0.5
aF0.59999999999999998
aa(lp847
F0.5
aF0.59999999999999998
aF0.69999999999999996
aF0.20000000000000001
aF0.20000000000000001
aF0.29999999999999999
aaa(lp848
(lp849
F0.10000000000000001
aF0.10000000000000001
aF0.20000000000000001
aF0.5
aF0.59999999999999998
aF0.69999999999999996
aa(lp850
F0.59999999999999998
aF0.69999999999999996
aF0.90000000000000002
aF0
aF0.10000000000000001
aF0.20000000000000001
aa(lp851
F0.20000000000000001
aF0.40000000000000002
aF0.59999999999999998
aF0.5
aF0.5
aF0.59999999999999998
aaa(lp852
(lp853
F0.20000000000000001
aF0.29999999999999999
aF0.40000000000000002
aF0.40000000000000002
aF0.5
aF0.59999999999999998
aa(lp854
F0.5
aF0.5
aF0.69999999999999996
aF0.20000000000000001
aF0.29999999999999999
aF0.29999999999999999
aa(lp855
F0.10000000000000001
aF0.10000000000000001
aF0.20000000000000001
aF0.5
aF0.59999999999999998
aF0.69999999999999996
aaa(lp856
(lp857
F0
aF0.20000000000000001
aF0.29999999999999999
aF0.40000000000000002
aF0.59999999999999998
aF0.59999999999999998
aa(lp858
F0.59999999999999998
aF0.69999999999999996
aF0.90000000000000002
aF0
aF0.10000000000000001
aF0.20000000000000001
aa(lp859
F0.40000000000000002
aF0.5
aF0.59999999999999998
aF0.5
aF0.5
aF0.59999999999999998
aaaI2
asS'C5'
p860
(lp861
(lp862
(lp863
F0.10000000000000001
aF0.10000000000000001
aF0.10000000000000001
aF0.5
aF0.59999999999999998
aF0.69999999999999996
aa(lp864
F0.29999999999999999
aF0.40000000000000002
aF0.40000000000000002
aF0.40000000000000002
aF0.40000000000000002
aF0.5
aa(lp865
F0.59999999999999998
aF0.59999999999999998
aF0.80000000000000004
aF0.29999999999999999
aF0.29999999999999999
aF0.40000000000000002
aaa(lp866
(lp867
F0
aF0.10000000000000001
aF0.10000000000000001
aF0.40000000000000002
aF0.59999999999999998
aF0.69999999999999996
aa(lp868
F0.29999999999999999
aF0.40000000000000002
aF0.59999999999999998
aF0.29999999999999999
aF0.5
aF0.59999999999999998
aa(lp869
F0.69999999999999996
aF0.80000000000000004
aF0.80000000000000004
aF0.10000000000000001
aF0.10000000000000001
aF0.20000000000000001
aaa(lp870
(lp871
F0.29999999999999999
aF0.40000000000000002
aF0.59999999999999998
aF0.5
aF0.5
aF0.59999999999999998
aa(lp872
F0.29999999999999999
aF0.40000000000000002
aF0.40000000000000002
aF0.5
aF0.5
aF0.59999999999999998
aa(lp873
F0.5
aF0.5
aF0.59999999999999998
aF0.29999999999999999
aF0.29999999999999999
aF0.29999999999999999
aaa(lp874
(lp875
F0.10000000000000001
aF0.20000000000000001
aF0.29999999999999999
aF0.5
aF0.69999999999999996
aF0.69999999999999996
aa(lp876
F0.29999999999999999
aF0.40000000000000002
aF0.40000000000000002
aF0.29999999999999999
aF0.5
aF0.59999999999999998
aa(lp877
F0.59999999999999998
aF0.69999999999999996
aF0.90000000000000002
aF0
aF0.10000000000000001
aF0.20000000000000001
aaa(lp878
(lp879
F0.59999999999999998
aF0.59999999999999998
aF0.69999999999999996
aF0.20000000000000001
aF0.29999999999999999
aF0.29999999999999999
aa(lp880
F0.29999999999999999
aF0.29999999999999999
aF0.5
aF0.40000000000000002
aF0.5
aF0.59999999999999998
aa(lp881
F0.29999999999999999
aF0.40000000000000002
aF0.40000000000000002
aF0.29999999999999999
aF0.40000000000000002
aF0.59999999999999998
aaa(lp882
(lp883
F0.10000000000000001
aF0.10000000000000001
aF0.20000000000000001
aF0.40000000000000002
aF0.59999999999999998
aF0.59999999999999998
aa(lp884
F0.29999999999999999
aF0.40000000000000002
aF0.40000000000000002
aF0.5
aF0.5
aF0.59999999999999998
aa(lp885
F0.69999999999999996
aF0.80000000000000004
aF0.80000000000000004
aF0.10000000000000001
aF0.20000000000000001
aF0.20000000000000001
aaa(lp886
(lp887
F0.20000000000000001
aF0.29999999999999999
aF0.40000000000000002
aF0.5
aF0.5
aF0.5
aa(lp888
F0.59999999999999998
aF0.69999999999999996
aF0.80000000000000004
aF0.10000000000000001
aF0.20000000000000001
aF0.20000000000000001
aa(lp889
F0.10000000000000001
aF0.20000000000000001
aF0.20000000000000001
aF0.59999999999999998
aF0.69999999999999996
aF0.80000000000000004
aaa(lp890
(lp891
F0.10000000000000001
aF0.20000000000000001
aF0.29999999999999999
aF0.5
aF0.5
aF0.69999999999999996
aa(lp892
F0.29999999999999999
aF0.29999999999999999
aF0.59999999999999998
aF0.29999999999999999
aF0.5
aF0.59999999999999998
aa(lp893
F0.69999999999999996
aF0.69999999999999996
aF0.90000000000000002
aF0
aF0.20000000000000001
aF0.20000000000000001
aaa(lp894
(lp895
F0.40000000000000002
aF0.40000000000000002
aF0.5
aF0.5
aF0.5
aF0.59999999999999998
aa(lp896
F0.20000000000000001
aF0.29999999999999999
aF0.40000000000000002
aF0.29999999999999999
aF0.5
aF0.59999999999999998
aa(lp897
F0.59999999999999998
aF0.59999999999999998
aF0.69999999999999996
aF0.20000000000000001
aF0.29999999999999999
aF0.29999999999999999
aaa(lp898
(lp899
F0.20000000000000001
aF0.40000000000000002
aF0.40000000000000002
aF0.29999999999999999
aF0.40000000000000002
aF0.59999999999999998
aa(lp900
F0.29999999999999999
aF0.40000000000000002
aF0.59999999999999998
aF0.40000000000000002
aF0.5
aF0.59999999999999998
aa(lp901
F0.59999999999999998
aF0.59999999999999998
aF0.69999999999999996
aF0.20000000000000001
aF0.20000000000000001
aF0.40000000000000002
aaa(lp902
(lp903
F0.10000000000000001
aF0.20000000000000001
aF0.29999999999999999
aF0.5
aF0.5
aF0.80000000000000004
aa(lp904
F0.69999999999999996
aF0.80000000000000004
aF0.90000000000000002
aF0
aF0.20000000000000001
aF0.20000000000000001
aa(lp905
F0.40000000000000002
aF0.40000000000000002
aF0.59999999999999998
aF0.5
aF0.5
aF0.59999999999999998
aaa(lp906
(lp907
F0.10000000000000001
aF0.20000000000000001
aF0.29999999999999999
aF0.59999999999999998
aF0.59999999999999998
aF0.69999999999999996
aa(lp908
F0.29999999999999999
aF0.40000000000000002
aF0.40000000000000002
aF0.40000000000000002
aF0.5
aF0.5
aa(lp909
F0.80000000000000004
aF0.80000000000000004
aF0.90000000000000002
aF0
aF0.10000000000000001
aF0.20000000000000001
aaa(lp910
(lp911
F0.10000000000000001
aF0.20000000000000001
aF0.29999999999999999
aF0.5
aF0.5
aF0.69999999999999996
aa(lp912
F0.20000000000000001
aF0.29999999999999999
aF0.40000000000000002
aF0.40000000000000002
aF0.5
aF0.5
aa(lp913
F0.69999999999999996
aF0.69999999999999996
aF0.80000000000000004
aF0.10000000000000001
aF0.10000000000000001
aF0.20000000000000001
aaa(lp914
(lp915
F0.59999999999999998
aF0.69999999999999996
aF0.90000000000000002
aF0.10000000000000001
aF0.10000000000000001
aF0.20000000000000001
aa(lp916
F0.29999999999999999
aF0.40000000000000002
aF0.40000000000000002
aF0.40000000000000002
aF0.5
aF0.59999999999999998
aa(lp917
F0
aF0.10000000000000001
aF0.20000000000000001
aF0.5
aF0.59999999999999998
aF0.59999999999999998
aaa(lp918
(lp919
F0
aF0.10000000000000001
aF0.10000000000000001
aF0.5
aF0.5
aF0.69999999999999996
aa(lp920
F0.59999999999999998
aF0.69999999999999996
aF0.90000000000000002
aF0
aF0.10000000000000001
aF0.20000000000000001
aa(lp921
F0.29999999999999999
aF0.40000000000000002
aF0.40000000000000002
aF0.5
aF0.5
aF0.5
aaa(lp922
(lp923
F0
aF0.10000000000000001
aF0.20000000000000001
aF0.5
aF0.69999999999999996
aF0.69999999999999996
aa(lp924
F0.59999999999999998
aF0.69999999999999996
aF0.80000000000000004
aF0
aF0.20000000000000001
aF0.20000000000000001
aa(lp925
F0.29999999999999999
aF0.40000000000000002
aF0.59999999999999998
aF0.5
aF0.5
aF0.5
aaaI3
asS'C4'
p926
(lp927
(lp928
(lp929
F0.10000000000000001
aF0.29999999999999999
aF0.40000000000000002
aF0.5
aF0.5
aF0.59999999999999998
aa(lp930
F0.20000000000000001
aF0.29999999999999999
aF0.40000000000000002
aF0.40000000000000002
aF0.5
aF0.59999999999999998
aa(lp931
F0.69999999999999996
aF0.80000000000000004
aF0.90000000000000002
aF0
aF0.20000000000000001
aF0.20000000000000001
aaa(lp932
(lp933
F0.20000000000000001
aF0.20000000000000001
aF0.29999999999999999
aF0.59999999999999998
aF0.59999999999999998
aF0.69999999999999996
aa(lp934
F0.20000000000000001
aF0.29999999999999999
aF0.40000000000000002
aF0.29999999999999999
aF0.5
aF0.5
aa(lp935
F0.69999999999999996
aF0.69999999999999996
aF0.80000000000000004
aF0
aF0.10000000000000001
aF0.20000000000000001
aaa(lp936
(lp937
F0.69999999999999996
aF0.69999999999999996
aF0.90000000000000002
aF0
aF0.10000000000000001
aF0.20000000000000001
aa(lp938
F0.29999999999999999
aF0.29999999999999999
aF0.40000000000000002
aF0.29999999999999999
aF0.5
aF0.59999999999999998
aa(lp939
F0.29999999999999999
aF0.29999999999999999
aF0.29999999999999999
aF0.29999999999999999
aF0.5
aF0.59999999999999998
aaa(lp940
(lp941
F0.29999999999999999
aF0.40000000000000002
aF0.40000000000000002
aF0.29999999999999999
aF0.40000000000000002
aF0.59999999999999998
aa(lp942
F0.40000000000000002
aF0.40000000000000002
aF0.59999999999999998
aF0.29999999999999999
aF0.40000000000000002
aF0.59999999999999998
aa(lp943
F0.69999999999999996
aF0.80000000000000004
aF0.80000000000000004
aF0.10000000000000001
aF0.20000000000000001
aF0.20000000000000001
aaa(lp944
(lp945
F0.10000000000000001
aF0.10000000000000001
aF0.20000000000000001
aF0.5
aF0.59999999999999998
aF0.69999999999999996
aa(lp946
F0.29999999999999999
aF0.40000000000000002
aF0.40000000000000002
aF0.40000000000000002
aF0.40000000000000002
aF0.5
aa(lp947
F0.69999999999999996
aF0.80000000000000004
aF0.80000000000000004
aF0
aF0.10000000000000001
aF0.20000000000000001
aaa(lp948
(lp949
F0
aF0.10000000000000001
aF0.20000000000000001
aF0.5
aF0.59999999999999998
aF0.69999999999999996
aa(lp950
F0.20000000000000001
aF0.40000000000000002
aF0.5
aF0.29999999999999999
aF0.5
aF0.5
aa(lp951
F0.5
aF0.5
aF0.69999999999999996
aF0.29999999999999999
aF0.29999999999999999
aF0.29999999999999999
aaa(lp952
(lp953
F0.20000000000000001
aF0.20000000000000001
aF0.40000000000000002
aF0.5
aF0.59999999999999998
aF0.80000000000000004
aa(lp954
F0.29999999999999999
aF0.40000000000000002
aF0.5
aF0.29999999999999999
aF0.40000000000000002
aF0.59999999999999998
aa(lp955
F0.80000000000000004
aF0.80000000000000004
aF0.80000000000000004
aF0
aF0.10000000000000001
aF0.10000000000000001
aaa(lp956
(lp957
F0.40000000000000002
aF0.5
aF0.59999999999999998
aF0.40000000000000002
aF0.40000000000000002
aF0.5
aa(lp958
F0.29999999999999999
aF0.40000000000000002
aF0.5
aF0.29999999999999999
aF0.5
aF0.59999999999999998
aa(lp959
F0.5
aF0.59999999999999998
aF0.69999999999999996
aF0.29999999999999999
aF0.29999999999999999
aF0.40000000000000002
aaa(lp960
(lp961
F0.10000000000000001
aF0.20000000000000001
aF0.29999999999999999
aF0.5
aF0.59999999999999998
aF0.69999999999999996
aa(lp962
F0.40000000000000002
aF0.5
aF0.59999999999999998
aF0.40000000000000002
aF0.5
aF0.59999999999999998
aa(lp963
F0.59999999999999998
aF0.69999999999999996
aF0.80000000000000004
aF0
aF0.10000000000000001
aF0.10000000000000001
aaa(lp964
(lp965
F0.29999999999999999
aF0.29999999999999999
aF0.5
aF0.40000000000000002
aF0.5
aF0.5
aa(lp966
F0.29999999999999999
aF0.29999999999999999
aF0.29999999999999999
aF0.40000000000000002
aF0.5
aF0.5
aa(lp967
F0.5
aF0.59999999999999998
aF0.59999999999999998
aF0.20000000000000001
aF0.20000000000000001
aF0.29999999999999999
aaa(lp968
(lp969
F0.59999999999999998
aF0.69999999999999996
aF0.90000000000000002
aF0.10000000000000001
aF0.10000000000000001
aF0.20000000000000001
aa(lp970
F0.29999999999999999
aF0.29999999999999999
aF0.40000000000000002
aF0.5
aF0.5
aF0.5
aa(lp971
F0
aF0.10000000000000001
aF0.20000000000000001
aF0.40000000000000002
aF0.59999999999999998
aF0.69999999999999996
aaa(lp972
(lp973
F0.10000000000000001
aF0.10000000000000001
aF0.29999999999999999
aF0.5
aF0.5
aF0.59999999999999998
aa(lp974
F0.29999999999999999
aF0.29999999999999999
aF0.40000000000000002
aF0.5
aF0.5
aF0.5
aa(lp975
F0.59999999999999998
aF0.69999999999999996
aF0.90000000000000002
aF0
aF0.10000000000000001
aF0.20000000000000001
aaa(lp976
(lp977
F0.69999999999999996
aF0.80000000000000004
aF0.80000000000000004
aF0
aF0.10000000000000001
aF0.20000000000000001
aa(lp978
F0.29999999999999999
aF0.40000000000000002
aF0.40000000000000002
aF0.29999999999999999
aF0.5
aF0.59999999999999998
aa(lp979
F0.29999999999999999
aF0.40000000000000002
aF0.59999999999999998
aF0.29999999999999999
aF0.40000000000000002
aF0.59999999999999998
aaa(lp980
(lp981
F0
aF0.10000000000000001
aF0.29999999999999999
aF0.40000000000000002
aF0.5
aF0.69999999999999996
aa(lp982
F0.20000000000000001
aF0.29999999999999999
aF0.29999999999999999
aF0.29999999999999999
aF0.5
aF0.5
aa(lp983
F0.5
aF0.5
aF0.59999999999999998
aF0.20000000000000001
aF0.29999999999999999
aF0.29999999999999999
aaa(lp984
(lp985
F0.5
aF0.69999999999999996
aF0.80000000000000004
aF0.29999999999999999
aF0.29999999999999999
aF0.40000000000000002
aa(lp986
F0.29999999999999999
aF0.40000000000000002
aF0.40000000000000002
aF0.40000000000000002
aF0.5
aF0.5
aa(lp987
F0
aF0.20000000000000001
aF0.29999999999999999
aF0.59999999999999998
aF0.69999999999999996
aF0.69999999999999996
aaa(lp988
(lp989
F0.10000000000000001
aF0.10000000000000001
aF0.10000000000000001
aF0.5
aF0.59999999999999998
aF0.69999999999999996
aa(lp990
F0.59999999999999998
aF0.59999999999999998
aF0.69999999999999996
aF0.20000000000000001
aF0.20000000000000001
aF0.20000000000000001
aa(lp991
F0.20000000000000001
aF0.29999999999999999
aF0.40000000000000002
aF0.5
aF0.5
aF0.59999999999999998
aaaI3
as.